ccollections
defaultdict
p0
(c__builtin__
list
p1
tp2
Rp3
VMystery
p4
(lp5
I22
aI29
aI32
aI47
aI50
aI103
aI113
aI123
aI159
aI160
aI164
aI188
aI198
aI212
aI257
aI314
aI335
aI350
aI366
aI427
aI451
aI492
aI513
aI517
aI533
aI548
aI628
aI648
aI680
aI695
aI714
aI775
aI800
aI824
aI903
aI904
aI908
aI911
aI913
aI923
aI928
aI929
aI931
aI933
aI942
aI965
aI1018
aI1086
aI1089
aI1092
aI1130
aI1131
aI1212
aI1232
aI1252
aI1264
aI1269
aI1284
aI1327
aI1335
aI1350
aI1354
aI1372
aI1406
aI1407
aI1422
aI1459
aI1460
aI1464
aI1484
aI1597
aI1617
aI1620
aI1625
aI1627
aI1644
aI1645
aI1661
aI1693
aI1711
aI1717
aI1783
aI1799
aI1805
aI1834
aI1845
aI1889
aI1909
aI1913
aI1950
aI1964
aI1974
aI1997
aI2009
aI2023
aI2024
aI2058
aI2068
aI2076
aI2097
aI2126
aI2181
aI2183
aI2184
aI2187
aI2204
aI2206
aI2208
aI2232
aI2267
aI2316
aI2338
aI2346
aI2371
aI2413
aI2414
aI2454
aI2467
aI2475
aI2505
aI2579
aI2632
aI2686
aI2688
aI2712
aI2735
aI2749
aI2752
aI2762
aI2763
aI2803
aI2810
aI2819
aI2841
aI2844
aI2875
aI2898
aI2902
aI2940
aI2987
aI3044
aI3068
aI3081
aI3105
aI3113
aI3176
aI3204
aI3219
aI3251
aI3262
aI3273
aI3284
aI3355
aI3386
aI3387
aI3445
aI3476
aI3503
aI3505
aI3535
aI3557
aI3706
aI3730
aI3788
aI3798
aI3801
aI3849
aI3920
aI3971
aI3973
aI4037
aI4056
aI4086
aI4143
aI4146
aI4195
aI4212
aI4226
aI4238
aI4243
aI4247
aI4383
aI4409
aI4436
aI4496
aI4506
aI4517
aI4522
aI4562
aI4589
aI4597
aI4610
aI4658
aI4689
aI4720
aI4754
aI4794
aI4808
aI4833
aI4848
aI4865
aI4874
aI4878
aI4898
aI4927
aI4932
aI4969
aI4975
aI4978
aI5008
aI5013
aI5021
aI5026
aI5062
aI5065
aI5110
aI5120
aI5127
aI5291
aI5311
aI5388
aI5418
aI5419
aI5433
aI5445
aI5475
aI5501
aI5506
aI5613
aI5630
aI5679
aI5712
aI5746
aI5755
aI5787
aI5938
aI5980
aI6021
aI6101
aI6140
aI6197
aI6214
aI6234
aI6242
aI6273
aI6297
aI6303
aI6323
aI6424
aI6476
aI6530
aI6538
aI6581
aI6629
aI6789
aI6803
aI6868
aI6870
aI6885
aI6902
aI6949
aI6953
aI6954
aI6967
aI7001
aI7044
aI7073
aI7115
aI7116
aI7123
aI7223
aI7305
aI7306
aI7347
aI7369
aI7371
aI7382
aI7445
aI7616
aI7646
aI7831
aI7832
aI7833
aI7834
aI7835
aI7930
aI7982
aI8019
aI8195
aI8228
aI8253
aI8369
aI8506
aI8588
aI8620
aI8670
aI8771
aI8773
aI8774
aI8778
aI8783
aI8860
aI8870
aI8879
aI8947
aI8950
aI8957
aI8959
aI8972
aI9005
aI25940
aI26002
aI26242
aI26453
aI26504
aI26554
aI26614
aI26631
aI26693
aI26701
aI26761
aI26875
aI26887
aI27317
aI27397
aI27434
aI27473
aI27482
aI27491
aI27537
aI27584
aI27604
aI27674
aI27721
aI27751
aI27773
aI27784
aI27788
aI27839
aI27904
aI30745
aI30894
aI31364
aI31427
aI31431
aI31737
aI31804
aI31921
aI31952
aI32060
aI32213
aI32587
aI32728
aI33171
aI33201
aI34330
aI34532
aI36276
aI36509
aI36533
aI37495
aI38061
aI39400
aI41014
aI42556
aI42632
aI43679
aI43932
aI44597
aI44665
aI44759
aI44761
aI45361
aI45447
aI45730
aI46664
aI46948
aI46967
aI47261
aI47446
aI47610
aI47810
aI47950
aI48142
aI48780
aI48883
aI49932
aI50064
aI51037
aI51086
aI51255
aI51666
aI51925
aI51927
aI52462
aI52604
aI52712
aI52885
aI54372
aI54962
aI55094
aI55278
aI55290
aI56339
aI57368
aI59306
aI59738
aI60289
aI60303
aI60684
aI60760
aI60941
aI61011
aI61167
aI61262
aI61697
aI63033
aI63062
aI63515
aI64575
aI64957
aI65882
aI66798
aI67197
aI67255
aI67361
aI68237
aI68554
aI68945
aI69118
aI69844
aI70159
aI70286
aI70708
aI71033
aI71108
aI71550
aI72104
aI72129
aI73017
aI73323
aI74228
aI74458
aI74510
aI74545
aI74727
aI76091
aI77364
aI78088
aI78349
aI79132
aI79299
aI79868
aI79895
aI79897
aI80478
aI80831
aI80846
aI80862
aI81132
aI81535
aI82378
aI84601
aI85295
aI85397
aI85414
aI86190
aI86295
aI86355
aI86781
aI87306
aI88125
aI89837
aI90345
aI90524
aI90738
aI90746
aI90866
aI91542
aI92507
aI93982
aI94799
aI94867
aI95738
aI96471
aI96520
aI96832
aI96964
aI97285
aI97742
aI97785
aI99721
aI100383
aI100527
aI101088
aI102903
aI103449
aI104879
aI105653
aI107314
aI107436
aI107997
aI108729
aI108981
aI109191
aI109578
aI112421
aI112512
aI113350
aI113741
aI114180
aI114246
aI114707
aI114935
aI116799
aI118354
aI118706
aI118894
aI120138
aI120637
aI120827
aI121469
aI122433
aI125914
aI127136
aI128512
aI128592
aI130050
aI130482
aI132046
aI132618
aI135288
aI135518
aI139052
aI139644
aI140525
aI140737
aI140850
aI142444
aI143255
aI143458
aI145080
aI146028
aI146688
aI147286
aI147300
aI147326
aI148978
aI150548
aI151763
aI155064
aI156675
aI158238
aI159061
aI162968
aI165101
aI165347
aI168090
aI168218
aI169958
aI170355
aI170945
aI171917
aI172229
aI174053
aI175569
aI176419
aI177763
aI182715
aI183011
aI183295
aI183635
aI184253
asVDrama
p6
(lp7
I4
aI11
aI14
aI16
aI17
aI20
aI22
aI24
aI25
aI26
aI27
aI28
aI29
aI30
aI31
aI34
aI36
aI40
aI41
aI42
aI43
aI45
aI46
aI48
aI49
aI52
aI53
aI55
aI57
aI58
aI61
aI62
aI72
aI73
aI74
aI75
aI78
aI79
aI80
aI81
aI82
aI83
aI85
aI86
aI92
aI94
aI96
aI97
aI100
aI105
aI106
aI110
aI111
aI113
aI117
aI121
aI123
aI140
aI145
aI147
aI148
aI149
aI150
aI151
aI152
aI154
aI155
aI156
aI159
aI161
aI166
aI168
aI169
aI171
aI175
aI178
aI179
aI184
aI191
aI193
aI194
aI195
aI198
aI199
aI201
aI202
aI205
aI207
aI209
aI211
aI213
aI214
aI215
aI217
aI218
aI219
aI222
aI224
aI225
aI229
aI230
aI232
aI233
aI235
aI241
aI242
aI247
aI249
aI253
aI254
aI259
aI261
aI262
aI263
aI265
aI266
aI269
aI270
aI271
aI272
aI273
aI277
aI279
aI280
aI281
aI282
aI283
aI285
aI290
aI291
aI292
aI293
aI296
aI298
aI299
aI300
aI301
aI302
aI304
aI306
aI307
aI308
aI314
aI315
aI317
aI318
aI319
aI321
aI322
aI324
aI326
aI329
aI331
aI334
aI336
aI337
aI340
aI341
aI345
aI346
aI347
aI349
aI350
aI351
aI352
aI354
aI356
aI358
aI359
aI361
aI364
aI365
aI366
aI369
aI371
aI372
aI381
aI382
aI384
aI385
aI386
aI388
aI389
aI390
aI391
aI406
aI408
aI409
aI412
aI418
aI421
aI424
aI425
aI427
aI428
aI430
aI431
aI436
aI438
aI446
aI448
aI450
aI451
aI452
aI454
aI455
aI456
aI458
aI459
aI461
aI469
aI472
aI475
aI476
aI477
aI478
aI481
aI482
aI488
aI491
aI493
aI495
aI496
aI500
aI501
aI504
aI506
aI507
aI508
aI509
aI510
aI511
aI515
aI516
aI517
aI519
aI522
aI523
aI524
aI526
aI527
aI528
aI529
aI531
aI534
aI535
aI536
aI537
aI538
aI539
aI542
aI549
aI553
aI562
aI563
aI567
aI568
aI569
aI573
aI574
aI577
aI580
aI583
aI587
aI590
aI594
aI605
aI608
aI613
aI615
aI617
aI627
aI628
aI632
aI635
aI636
aI639
aI640
aI645
aI647
aI649
aI650
aI665
aI668
aI670
aI678
aI679
aI680
aI685
aI694
aI697
aI698
aI703
aI706
aI707
aI714
aI715
aI724
aI726
aI757
aI760
aI764
aI765
aI766
aI773
aI778
aI779
aI781
aI782
aI783
aI786
aI790
aI795
aI798
aI800
aI802
aI803
aI805
aI806
aI823
aI824
aI835
aI838
aI848
aI851
aI852
aI858
aI866
aI869
aI875
aI882
aI885
aI889
aI892
aI893
aI896
aI897
aI898
aI902
aI903
aI906
aI909
aI912
aI914
aI916
aI917
aI920
aI922
aI923
aI924
aI926
aI928
aI929
aI932
aI943
aI944
aI946
aI948
aI949
aI953
aI954
aI956
aI959
aI961
aI965
aI970
aI971
aI973
aI979
aI981
aI982
aI984
aI987
aI988
aI991
aI993
aI994
aI996
aI1003
aI1006
aI1012
aI1014
aI1015
aI1019
aI1027
aI1029
aI1033
aI1034
aI1040
aI1041
aI1042
aI1043
aI1046
aI1047
aI1050
aI1051
aI1053
aI1054
aI1056
aI1059
aI1060
aI1076
aI1082
aI1084
aI1085
aI1088
aI1090
aI1093
aI1094
aI1095
aI1096
aI1097
aI1099
aI1100
aI1103
aI1104
aI1112
aI1114
aI1116
aI1117
aI1119
aI1120
aI1121
aI1124
aI1131
aI1132
aI1140
aI1150
aI1151
aI1156
aI1161
aI1162
aI1163
aI1172
aI1173
aI1175
aI1176
aI1177
aI1178
aI1179
aI1183
aI1184
aI1185
aI1186
aI1187
aI1190
aI1193
aI1203
aI1204
aI1206
aI1207
aI1208
aI1209
aI1211
aI1213
aI1216
aI1217
aI1218
aI1221
aI1222
aI1224
aI1225
aI1226
aI1227
aI1228
aI1231
aI1232
aI1233
aI1235
aI1236
aI1237
aI1242
aI1243
aI1244
aI1245
aI1246
aI1247
aI1250
aI1251
aI1253
aI1254
aI1259
aI1262
aI1263
aI1264
aI1266
aI1268
aI1271
aI1272
aI1273
aI1276
aI1277
aI1279
aI1280
aI1281
aI1283
aI1286
aI1287
aI1290
aI1292
aI1293
aI1295
aI1296
aI1298
aI1299
aI1300
aI1301
aI1302
aI1303
aI1305
aI1306
aI1312
aI1318
aI1327
aI1337
aI1340
aI1344
aI1345
aI1346
aI1351
aI1353
aI1354
aI1357
aI1358
aI1363
aI1365
aI1366
aI1382
aI1385
aI1392
aI1393
aI1395
aI1396
aI1397
aI1399
aI1401
aI1406
aI1409
aI1411
aI1412
aI1413
aI1415
aI1416
aI1417
aI1419
aI1422
aI1423
aI1428
aI1432
aI1437
aI1442
aI1446
aI1454
aI1457
aI1458
aI1464
aI1465
aI1466
aI1473
aI1476
aI1480
aI1483
aI1484
aI1487
aI1488
aI1496
aI1498
aI1502
aI1507
aI1515
aI1519
aI1529
aI1533
aI1537
aI1542
aI1545
aI1547
aI1549
aI1551
aI1554
aI1564
aI1572
aI1573
aI1584
aI1586
aI1589
aI1594
aI1596
aI1597
aI1598
aI1600
aI1601
aI1609
aI1611
aI1613
aI1615
aI1619
aI1620
aI1621
aI1624
aI1625
aI1626
aI1627
aI1633
aI1635
aI1639
aI1641
aI1642
aI1643
aI1645
aI1647
aI1648
aI1650
aI1653
aI1654
aI1655
aI1656
aI1659
aI1660
aI1667
aI1670
aI1671
aI1672
aI1673
aI1674
aI1677
aI1678
aI1680
aI1682
aI1683
aI1684
aI1685
aI1688
aI1693
aI1694
aI1695
aI1696
aI1699
aI1701
aI1704
aI1711
aI1719
aI1721
aI1726
aI1727
aI1729
aI1730
aI1733
aI1734
aI1735
aI1754
aI1757
aI1759
aI1767
aI1783
aI1784
aI1791
aI1794
aI1799
aI1801
aI1804
aI1805
aI1807
aI1809
aI1810
aI1812
aI1816
aI1825
aI1829
aI1833
aI1834
aI1835
aI1836
aI1840
aI1841
aI1844
aI1859
aI1860
aI1870
aI1873
aI1876
aI1883
aI1884
aI1885
aI1888
aI1889
aI1893
aI1895
aI1897
aI1900
aI1902
aI1904
aI1907
aI1910
aI1912
aI1913
aI1914
aI1916
aI1921
aI1922
aI1927
aI1928
aI1929
aI1931
aI1932
aI1933
aI1936
aI1937
aI1938
aI1939
aI1940
aI1941
aI1942
aI1944
aI1945
aI1946
aI1947
aI1949
aI1950
aI1951
aI1952
aI1954
aI1955
aI1956
aI1957
aI1958
aI1959
aI1960
aI1961
aI1962
aI1964
aI1968
aI2000
aI2001
aI2002
aI2008
aI2009
aI2010
aI2013
aI2018
aI2019
aI2020
aI2022
aI2023
aI2024
aI2025
aI2028
aI2058
aI2065
aI2067
aI2068
aI2069
aI2070
aI2071
aI2074
aI2075
aI2076
aI2090
aI2097
aI2104
aI2106
aI2112
aI2114
aI2117
aI2120
aI2123
aI2125
aI2130
aI2131
aI2132
aI2138
aI2139
aI2145
aI2146
aI2147
aI2154
aI2155
aI2156
aI2160
aI2164
aI2165
aI2166
aI2171
aI2172
aI2175
aI2176
aI2181
aI2182
aI2183
aI2186
aI2188
aI2190
aI2194
aI2201
aI2202
aI2203
aI2207
aI2208
aI2212
aI2226
aI2227
aI2231
aI2236
aI2239
aI2240
aI2243
aI2245
aI2248
aI2252
aI2260
aI2262
aI2263
aI2268
aI2269
aI2271
aI2272
aI2281
aI2282
aI2283
aI2289
aI2290
aI2291
aI2297
aI2303
aI2304
aI2310
aI2312
aI2313
aI2314
aI2316
aI2318
aI2320
aI2321
aI2324
aI2329
aI2331
aI2332
aI2333
aI2336
aI2337
aI2342
aI2344
aI2347
aI2348
aI2351
aI2352
aI2357
aI2358
aI2360
aI2362
aI2363
aI2369
aI2370
aI2374
aI2384
aI2388
aI2391
aI2392
aI2393
aI2395
aI2396
aI2398
aI2400
aI2403
aI2409
aI2410
aI2411
aI2412
aI2415
aI2417
aI2419
aI2420
aI2421
aI2422
aI2427
aI2429
aI2430
aI2431
aI2432
aI2433
aI2435
aI2436
aI2439
aI2442
aI2443
aI2445
aI2447
aI2453
aI2455
aI2467
aI2469
aI2474
aI2481
aI2488
aI2493
aI2501
aI2503
aI2504
aI2505
aI2506
aI2512
aI2520
aI2521
aI2522
aI2523
aI2524
aI2529
aI2535
aI2540
aI2541
aI2544
aI2546
aI2551
aI2557
aI2563
aI2565
aI2570
aI2573
aI2575
aI2577
aI2583
aI2585
aI2587
aI2589
aI2590
aI2594
aI2596
aI2607
aI2609
aI2611
aI2612
aI2620
aI2624
aI2630
aI2632
aI2639
aI2648
aI2654
aI2662
aI2672
aI2674
aI2676
aI2682
aI2686
aI2687
aI2688
aI2691
aI2695
aI2697
aI2702
aI2710
aI2712
aI2725
aI2728
aI2729
aI2730
aI2731
aI2732
aI2734
aI2737
aI2738
aI2739
aI2742
aI2743
aI2744
aI2745
aI2749
aI2750
aI2751
aI2757
aI2761
aI2762
aI2764
aI2765
aI2766
aI2769
aI2771
aI2775
aI2797
aI2800
aI2801
aI2802
aI2803
aI2819
aI2820
aI2824
aI2839
aI2840
aI2844
aI2846
aI2847
aI2848
aI2852
aI2858
aI2861
aI2862
aI2866
aI2871
aI2875
aI2881
aI2882
aI2883
aI2885
aI2889
aI2890
aI2892
aI2893
aI2894
aI2905
aI2906
aI2908
aI2912
aI2919
aI2922
aI2925
aI2926
aI2927
aI2928
aI2929
aI2931
aI2932
aI2939
aI2940
aI2942
aI2943
aI2944
aI2950
aI2952
aI2959
aI2961
aI2964
aI2966
aI2967
aI2969
aI2970
aI2971
aI2972
aI2973
aI2975
aI2976
aI2977
aI2979
aI2985
aI2988
aI2996
aI2997
aI3000
aI3003
aI3006
aI3008
aI3010
aI3011
aI3019
aI3020
aI3029
aI3032
aI3035
aI3036
aI3038
aI3045
aI3051
aI3053
aI3056
aI3060
aI3062
aI3063
aI3064
aI3066
aI3067
aI3068
aI3071
aI3073
aI3075
aI3078
aI3079
aI3083
aI3089
aI3090
aI3091
aI3093
aI3094
aI3095
aI3097
aI3098
aI3099
aI3100
aI3101
aI3103
aI3105
aI3106
aI3107
aI3108
aI3109
aI3111
aI3112
aI3115
aI3117
aI3125
aI3127
aI3129
aI3130
aI3132
aI3134
aI3135
aI3138
aI3141
aI3143
aI3145
aI3147
aI3148
aI3150
aI3152
aI3155
aI3156
aI3158
aI3160
aI3161
aI3162
aI3163
aI3165
aI3167
aI3168
aI3169
aI3171
aI3173
aI3174
aI3176
aI3178
aI3179
aI3181
aI3183
aI3185
aI3186
aI3189
aI3192
aI3194
aI3196
aI3198
aI3200
aI3201
aI3210
aI3211
aI3214
aI3217
aI3221
aI3223
aI3224
aI3246
aI3249
aI3250
aI3251
aI3252
aI3255
aI3256
aI3257
aI3259
aI3260
aI3261
aI3262
aI3263
aI3265
aI3266
aI3269
aI3270
aI3271
aI3272
aI3274
aI3275
aI3285
aI3289
aI3295
aI3296
aI3298
aI3299
aI3307
aI3308
aI3310
aI3317
aI3325
aI3328
aI3329
aI3330
aI3331
aI3334
aI3342
aI3347
aI3350
aI3357
aI3358
aI3359
aI3360
aI3361
aI3362
aI3363
aI3365
aI3370
aI3374
aI3378
aI3379
aI3386
aI3390
aI3402
aI3403
aI3404
aI3405
aI3406
aI3408
aI3409
aI3410
aI3412
aI3414
aI3415
aI3418
aI3420
aI3423
aI3424
aI3425
aI3426
aI3428
aI3430
aI3431
aI3432
aI3433
aI3434
aI3435
aI3436
aI3441
aI3442
aI3446
aI3447
aI3448
aI3449
aI3451
aI3453
aI3455
aI3456
aI3459
aI3461
aI3462
aI3467
aI3468
aI3469
aI3470
aI3471
aI3475
aI3477
aI3478
aI3480
aI3481
aI3494
aI3496
aI3498
aI3499
aI3500
aI3502
aI3503
aI3504
aI3505
aI3506
aI3508
aI3510
aI3512
aI3513
aI3514
aI3519
aI3521
aI3526
aI3528
aI3531
aI3534
aI3536
aI3537
aI3543
aI3545
aI3546
aI3548
aI3551
aI3553
aI3554
aI3556
aI3559
aI3565
aI3566
aI3567
aI3569
aI3571
aI3577
aI3578
aI3580
aI3584
aI3586
aI3590
aI3591
aI3594
aI3598
aI3628
aI3637
aI3640
aI3641
aI3643
aI3649
aI3654
aI3655
aI3668
aI3674
aI3676
aI3678
aI3681
aI3682
aI3683
aI3684
aI3685
aI3699
aI3700
aI3701
aI3707
aI3711
aI3713
aI3714
aI3716
aI3720
aI3723
aI3724
aI3728
aI3729
aI3730
aI3731
aI3733
aI3735
aI3736
aI3737
aI3738
aI3741
aI3742
aI3746
aI3747
aI3753
aI3755
aI3756
aI3758
aI3761
aI3765
aI3774
aI3783
aI3788
aI3789
aI3790
aI3791
aI3792
aI3794
aI3795
aI3798
aI3801
aI3808
aI3810
aI3811
aI3813
aI3816
aI3822
aI3823
aI3824
aI3825
aI3834
aI3844
aI3845
aI3855
aI3863
aI3870
aI3871
aI3872
aI3888
aI3893
aI3894
aI3897
aI3899
aI3900
aI3901
aI3910
aI3912
aI3914
aI3915
aI3916
aI3920
aI3925
aI3946
aI3947
aI3949
aI3950
aI3951
aI3952
aI3957
aI3958
aI3965
aI3967
aI3969
aI3978
aI3980
aI3983
aI3985
aI3987
aI3992
aI3993
aI3994
aI3996
aI3998
aI4000
aI4007
aI4008
aI4009
aI4012
aI4014
aI4017
aI4019
aI4021
aI4022
aI4023
aI4029
aI4031
aI4033
aI4034
aI4036
aI4041
aI4042
aI4043
aI4046
aI4047
aI4052
aI4054
aI4055
aI4056
aI4061
aI4062
aI4063
aI4065
aI4067
aI4074
aI4077
aI4078
aI4082
aI4085
aI4103
aI4109
aI4111
aI4113
aI4117
aI4126
aI4139
aI4142
aI4144
aI4146
aI4147
aI4152
aI4155
aI4157
aI4160
aI4164
aI4166
aI4174
aI4175
aI4178
aI4180
aI4184
aI4187
aI4189
aI4190
aI4191
aI4194
aI4202
aI4203
aI4205
aI4210
aI4211
aI4218
aI4223
aI4234
aI4235
aI4239
aI4242
aI4243
aI4246
aI4251
aI4252
aI4254
aI4256
aI4259
aI4260
aI4262
aI4263
aI4273
aI4280
aI4282
aI4289
aI4290
aI4292
aI4296
aI4297
aI4300
aI4308
aI4310
aI4312
aI4313
aI4316
aI4322
aI4325
aI4326
aI4334
aI4337
aI4338
aI4339
aI4342
aI4344
aI4345
aI4347
aI4355
aI4357
aI4370
aI4371
aI4372
aI4378
aI4380
aI4383
aI4384
aI4389
aI4390
aI4392
aI4393
aI4399
aI4404
aI4406
aI4407
aI4408
aI4409
aI4410
aI4419
aI4420
aI4422
aI4424
aI4427
aI4428
aI4429
aI4432
aI4433
aI4438
aI4439
aI4442
aI4448
aI4449
aI4450
aI4451
aI4454
aI4463
aI4464
aI4465
aI4466
aI4470
aI4473
aI4474
aI4475
aI4478
aI4482
aI4484
aI4487
aI4488
aI4500
aI4505
aI4508
aI4521
aI4523
aI4529
aI4534
aI4535
aI4537
aI4546
aI4557
aI4564
aI4572
aI4573
aI4577
aI4581
aI4584
aI4589
aI4595
aI4597
aI4599
aI4600
aI4608
aI4611
aI4612
aI4615
aI4616
aI4625
aI4626
aI4628
aI4635
aI4641
aI4642
aI4643
aI4644
aI4646
aI4654
aI4658
aI4661
aI4671
aI4681
aI4683
aI4688
aI4695
aI4699
aI4703
aI4708
aI4710
aI4713
aI4719
aI4720
aI4723
aI4727
aI4736
aI4741
aI4745
aI4754
aI4756
aI4757
aI4759
aI4765
aI4766
aI4771
aI4772
aI4775
aI4776
aI4780
aI4784
aI4785
aI4787
aI4788
aI4800
aI4801
aI4803
aI4804
aI4809
aI4810
aI4811
aI4815
aI4818
aI4825
aI4826
aI4830
aI4835
aI4836
aI4840
aI4847
aI4848
aI4849
aI4857
aI4862
aI4867
aI4871
aI4873
aI4874
aI4878
aI4879
aI4880
aI4881
aI4883
aI4888
aI4889
aI4901
aI4902
aI4903
aI4912
aI4914
aI4916
aI4917
aI4919
aI4920
aI4921
aI4926
aI4928
aI4936
aI4951
aI4956
aI4958
aI4959
aI4964
aI4965
aI4967
aI4970
aI4971
aI4976
aI4977
aI4978
aI4979
aI4991
aI4994
aI4995
aI4998
aI5008
aI5009
aI5010
aI5011
aI5012
aI5013
aI5014
aI5015
aI5016
aI5023
aI5027
aI5028
aI5033
aI5034
aI5046
aI5049
aI5051
aI5055
aI5060
aI5064
aI5065
aI5066
aI5068
aI5069
aI5071
aI5073
aI5074
aI5076
aI5081
aI5083
aI5088
aI5099
aI5103
aI5105
aI5107
aI5108
aI5111
aI5112
aI5114
aI5121
aI5127
aI5131
aI5134
aI5136
aI5147
aI5152
aI5177
aI5178
aI5197
aI5198
aI5202
aI5221
aI5225
aI5226
aI5237
aI5238
aI5239
aI5240
aI5256
aI5258
aI5265
aI5267
aI5268
aI5269
aI5272
aI5275
aI5291
aI5293
aI5294
aI5297
aI5300
aI5304
aI5322
aI5328
aI5329
aI5333
aI5338
aI5339
aI5341
aI5345
aI5346
aI5347
aI5348
aI5353
aI5364
aI5365
aI5373
aI5377
aI5379
aI5380
aI5384
aI5387
aI5388
aI5390
aI5391
aI5398
aI5400
aI5404
aI5410
aI5415
aI5416
aI5417
aI5420
aI5421
aI5424
aI5425
aI5433
aI5434
aI5446
aI5447
aI5450
aI5451
aI5455
aI5461
aI5464
aI5465
aI5466
aI5471
aI5472
aI5475
aI5477
aI5479
aI5485
aI5498
aI5499
aI5503
aI5505
aI5506
aI5508
aI5515
aI5521
aI5522
aI5524
aI5525
aI5527
aI5528
aI5530
aI5531
aI5537
aI5562
aI5563
aI5570
aI5575
aI5577
aI5589
aI5601
aI5607
aI5608
aI5610
aI5614
aI5615
aI5617
aI5625
aI5628
aI5632
aI5633
aI5635
aI5637
aI5644
aI5646
aI5657
aI5666
aI5667
aI5668
aI5673
aI5680
aI5682
aI5685
aI5688
aI5689
aI5690
aI5693
aI5694
aI5696
aI5706
aI5707
aI5721
aI5741
aI5742
aI5745
aI5747
aI5749
aI5764
aI5771
aI5772
aI5782
aI5786
aI5788
aI5791
aI5792
aI5799
aI5810
aI5812
aI5817
aI5818
aI5828
aI5829
aI5838
aI5839
aI5840
aI5843
aI5847
aI5856
aI5867
aI5873
aI5875
aI5876
aI5878
aI5881
aI5888
aI5889
aI5890
aI5893
aI5899
aI5901
aI5902
aI5909
aI5915
aI5927
aI5941
aI5944
aI5945
aI5947
aI5951
aI5953
aI5954
aI5955
aI5956
aI5959
aI5962
aI5963
aI5968
aI5969
aI5970
aI5971
aI5975
aI5984
aI5986
aI5988
aI5989
aI5991
aI5992
aI5993
aI5994
aI5995
aI6001
aI6002
aI6003
aI6009
aI6016
aI6020
aI6021
aI6022
aI6023
aI6027
aI6031
aI6035
aI6041
aI6049
aI6051
aI6055
aI6057
aI6063
aI6064
aI6070
aI6086
aI6101
aI6107
aI6148
aI6159
aI6162
aI6170
aI6178
aI6181
aI6184
aI6185
aI6186
aI6187
aI6193
aI6196
aI6197
aI6201
aI6202
aI6213
aI6214
aI6215
aI6216
aI6217
aI6218
aI6219
aI6220
aI6222
aI6223
aI6225
aI6232
aI6234
aI6235
aI6237
aI6238
aI6241
aI6244
aI6245
aI6246
aI6250
aI6263
aI6264
aI6266
aI6267
aI6268
aI6270
aI6271
aI6273
aI6279
aI6280
aI6281
aI6285
aI6286
aI6288
aI6291
aI6301
aI6305
aI6310
aI6319
aI6324
aI6329
aI6330
aI6334
aI6335
aI6336
aI6337
aI6339
aI6341
aI6342
aI6344
aI6345
aI6347
aI6349
aI6370
aI6373
aI6376
aI6382
aI6385
aI6395
aI6415
aI6422
aI6427
aI6436
aI6440
aI6448
aI6449
aI6452
aI6454
aI6460
aI6461
aI6465
aI6466
aI6477
aI6484
aI6493
aI6509
aI6510
aI6516
aI6517
aI6530
aI6538
aI6542
aI6545
aI6547
aI6549
aI6552
aI6553
aI6557
aI6558
aI6563
aI6565
aI6567
aI6571
aI6573
aI6577
aI6581
aI6591
aI6592
aI6596
aI6603
aI6609
aI6611
aI6620
aI6639
aI6643
aI6644
aI6645
aI6650
aI6660
aI6666
aI6668
aI6669
aI6671
aI6678
aI6684
aI6688
aI6689
aI6691
aI6696
aI6699
aI6705
aI6706
aI6708
aI6710
aI6711
aI6713
aI6721
aI6724
aI6750
aI6751
aI6752
aI6753
aI6760
aI6765
aI6768
aI6770
aI6776
aI6777
aI6783
aI6786
aI6787
aI6788
aI6789
aI6790
aI6791
aI6793
aI6796
aI6797
aI6810
aI6817
aI6818
aI6820
aI6832
aI6837
aI6849
aI6850
aI6851
aI6852
aI6856
aI6858
aI6860
aI6862
aI6867
aI6868
aI6870
aI6879
aI6881
aI6883
aI6884
aI6885
aI6886
aI6887
aI6890
aI6898
aI6902
aI6918
aI6927
aI6932
aI6939
aI6942
aI6947
aI6953
aI6954
aI6961
aI6969
aI6971
aI6973
aI6975
aI6978
aI6979
aI6981
aI6982
aI6983
aI6984
aI6985
aI6986
aI6989
aI6990
aI6992
aI6993
aI6997
aI6998
aI7007
aI7008
aI7009
aI7010
aI7013
aI7016
aI7018
aI7019
aI7020
aI7022
aI7023
aI7024
aI7025
aI7030
aI7031
aI7032
aI7034
aI7037
aI7038
aI7040
aI7044
aI7047
aI7052
aI7054
aI7056
aI7059
aI7060
aI7061
aI7062
aI7063
aI7064
aI7065
aI7067
aI7069
aI7071
aI7072
aI7076
aI7078
aI7079
aI7080
aI7083
aI7086
aI7087
aI7088
aI7089
aI7090
aI7092
aI7099
aI7102
aI7108
aI7109
aI7114
aI7118
aI7122
aI7123
aI7125
aI7127
aI7131
aI7134
aI7137
aI7139
aI7142
aI7143
aI7147
aI7149
aI7151
aI7153
aI7154
aI7158
aI7160
aI7162
aI7165
aI7167
aI7176
aI7177
aI7178
aI7179
aI7181
aI7184
aI7190
aI7208
aI7215
aI7216
aI7217
aI7218
aI7219
aI7222
aI7223
aI7234
aI7235
aI7238
aI7243
aI7248
aI7251
aI7254
aI7259
aI7260
aI7263
aI7265
aI7285
aI7297
aI7299
aI7301
aI7303
aI7305
aI7307
aI7311
aI7312
aI7315
aI7318
aI7323
aI7324
aI7326
aI7327
aI7328
aI7333
aI7336
aI7349
aI7352
aI7354
aI7357
aI7360
aI7361
aI7362
aI7364
aI7366
aI7368
aI7371
aI7372
aI7377
aI7379
aI7382
aI7386
aI7387
aI7390
aI7395
aI7396
aI7414
aI7438
aI7445
aI7449
aI7455
aI7458
aI7459
aI7460
aI7479
aI7481
aI7486
aI7487
aI7492
aI7493
aI7560
aI7572
aI7579
aI7581
aI7587
aI7615
aI7618
aI7619
aI7620
aI7624
aI7669
aI7698
aI7700
aI7702
aI7707
aI7713
aI7714
aI7728
aI7730
aI7742
aI7745
aI7748
aI7749
aI7753
aI7756
aI7762
aI7766
aI7767
aI7773
aI7782
aI7789
aI7811
aI7812
aI7820
aI7822
aI7831
aI7835
aI7842
aI7883
aI7891
aI7895
aI7896
aI7900
aI7924
aI7926
aI7936
aI7937
aI7938
aI7939
aI7940
aI7944
aI7976
aI7980
aI7981
aI7982
aI8010
aI8012
aI8014
aI8016
aI8019
aI8024
aI8025
aI8042
aI8043
aI8044
aI8045
aI8057
aI8092
aI8093
aI8094
aI8119
aI8125
aI8126
aI8128
aI8132
aI8143
aI8147
aI8153
aI8154
aI8158
aI8183
aI8188
aI8190
aI8191
aI8195
aI8197
aI8199
aI8232
aI8236
aI8239
aI8254
aI8261
aI8266
aI8270
aI8293
aI8302
aI8327
aI8335
aI8337
aI8338
aI8340
aI8341
aI8361
aI8362
aI8364
aI8366
aI8370
aI8378
aI8379
aI8391
aI8405
aI8410
aI8424
aI8426
aI8446
aI8451
aI8454
aI8456
aI8458
aI8459
aI8461
aI8462
aI8463
aI8464
aI8465
aI8481
aI8482
aI8484
aI8491
aI8492
aI8493
aI8494
aI8495
aI8502
aI8507
aI8518
aI8521
aI8529
aI8530
aI8532
aI8533
aI8534
aI8535
aI8571
aI8575
aI8581
aI8588
aI8591
aI8593
aI8600
aI8601
aI8607
aI8617
aI8620
aI8638
aI8640
aI8645
aI8650
aI8656
aI8667
aI8684
aI8685
aI8690
aI8714
aI8718
aI8724
aI8727
aI8730
aI8738
aI8754
aI8772
aI8783
aI8784
aI8795
aI8798
aI8804
aI8813
aI8830
aI8832
aI8833
aI8835
aI8836
aI8838
aI8840
aI8844
aI8848
aI8860
aI8864
aI8870
aI8873
aI8875
aI8880
aI8894
aI8905
aI8908
aI8914
aI8915
aI8918
aI8919
aI8920
aI8921
aI8933
aI8937
aI8943
aI8948
aI8949
aI8950
aI8951
aI8952
aI8955
aI8958
aI8959
aI8964
aI8966
aI8969
aI8970
aI8972
aI8973
aI8977
aI8981
aI8982
aI8983
aI9005
aI9010
aI25746
aI25753
aI25757
aI25773
aI25788
aI25795
aI25805
aI25825
aI25833
aI25834
aI25841
aI25850
aI25855
aI25856
aI25865
aI25886
aI25887
aI25898
aI25906
aI25923
aI25927
aI25940
aI25946
aI25952
aI25963
aI25996
aI25999
aI26002
aI26048
aI26052
aI26059
aI26073
aI26078
aI26082
aI26085
aI26095
aI26122
aI26131
aI26147
aI26150
aI26151
aI26158
aI26159
aI26169
aI26172
aI26176
aI26231
aI26236
aI26237
aI26283
aI26308
aI26313
aI26317
aI26322
aI26326
aI26344
aI26347
aI26350
aI26359
aI26391
aI26394
aI26401
aI26422
aI26453
aI26464
aI26467
aI26472
aI26498
aI26527
aI26528
aI26539
aI26554
aI26562
aI26564
aI26578
aI26585
aI26587
aI26599
aI26612
aI26614
aI26622
aI26649
aI26662
aI26681
aI26693
aI26694
aI26695
aI26701
aI26704
aI26713
aI26717
aI26743
aI26745
aI26750
aI26761
aI26777
aI26782
aI26791
aI26796
aI26810
aI26812
aI26838
aI26840
aI26849
aI26865
aI26887
aI26900
aI26903
aI26928
aI26965
aI26974
aI27002
aI27006
aI27020
aI27036
aI27124
aI27156
aI27246
aI27255
aI27266
aI27306
aI27317
aI27320
aI27373
aI27397
aI27408
aI27416
aI27420
aI27513
aI27549
aI27592
aI27611
aI27618
aI27627
aI27644
aI27660
aI27664
aI27674
aI27692
aI27695
aI27704
aI27705
aI27708
aI27716
aI27721
aI27722
aI27728
aI27741
aI27744
aI27751
aI27768
aI27769
aI27776
aI27788
aI27790
aI27802
aI27803
aI27808
aI27815
aI27816
aI27820
aI27821
aI27822
aI27826
aI27830
aI27831
aI27834
aI27838
aI27839
aI27865
aI27866
aI27869
aI27899
aI27904
aI27905
aI30707
aI30745
aI30749
aI30803
aI30812
aI30816
aI30818
aI30820
aI30822
aI30846
aI30848
aI30850
aI30890
aI30894
aI30898
aI30994
aI31030
aI31038
aI31086
aI31101
aI31114
aI31116
aI31162
aI31221
aI31225
aI31260
aI31309
aI31364
aI31410
aI31420
aI31431
aI31435
aI31437
aI31445
aI31522
aI31590
aI31610
aI31617
aI31660
aI31700
aI31702
aI31903
aI31921
aI31952
aI31973
aI32009
aI32029
aI32058
aI32139
aI32179
aI32234
aI32289
aI32291
aI32294
aI32371
aI32387
aI32392
aI32456
aI32460
aI32469
aI32515
aI32584
aI32600
aI32649
aI32657
aI32728
aI32743
aI32770
aI32799
aI32892
aI32906
aI32914
aI33124
aI33132
aI33138
aI33145
aI33162
aI33166
aI33171
aI33201
aI33237
aI33310
aI33421
aI33437
aI33558
aI33646
aI33649
aI33660
aI33669
aI33672
aI33725
aI33781
aI33815
aI33826
aI33880
aI33903
aI34143
aI34148
aI34164
aI34271
aI34326
aI34330
aI34397
aI34437
aI34450
aI34482
aI34523
aI34528
aI34532
aI34534
aI34536
aI34540
aI34811
aI35015
aI35347
aI36276
aI36363
aI36477
aI36517
aI36527
aI36529
aI36533
aI36535
aI36537
aI36931
aI37382
aI37475
aI37545
aI37720
aI37727
aI37731
aI37733
aI37736
aI37739
aI37741
aI37844
aI37857
aI38095
aI38159
aI38164
aI38294
aI38388
aI38798
aI38886
aI38992
aI39183
aI39231
aI39234
aI39292
aI39307
aI39381
aI39414
aI39435
aI39444
aI39449
aI39516
aI39869
aI40148
aI40278
aI40414
aI40491
aI40578
aI40583
aI40597
aI40614
aI40629
aI40732
aI40819
aI40826
aI40870
aI40955
aI40966
aI41285
aI41527
aI41569
aI41571
aI41573
aI41617
aI41627
aI41712
aI41716
aI41769
aI41863
aI41997
aI42004
aI42007
aI42015
aI42018
aI42176
aI42418
aI42422
aI42559
aI42632
aI42638
aI42728
aI42730
aI42943
aI43289
aI43333
aI43376
aI43396
aI43460
aI43549
aI43556
aI43677
aI43684
aI43744
aI43871
aI43908
aI43912
aI43914
aI43917
aI43932
aI44189
aI44195
aI44197
aI44199
aI44204
aI44301
aI44397
aI44555
aI44613
aI44657
aI44665
aI44694
aI44709
aI44719
aI44759
aI44761
aI44864
aI44889
aI44929
aI44931
aI44937
aI44974
aI45028
aI45062
aI45106
aI45175
aI45210
aI45361
aI45382
aI45440
aI45447
aI45501
aI45503
aI45635
aI45648
aI45658
aI45668
aI45672
aI45720
aI45730
aI45880
aI46062
aI46231
aI46322
aI46335
aI46559
aI46572
aI46578
aI46664
aI46723
aI46855
aI46862
aI46974
aI46976
aI47044
aI47099
aI47202
aI47254
aI47382
aI47384
aI47423
aI47446
aI47465
aI47491
aI47516
aI47566
aI47610
aI47629
aI47644
aI47646
aI47725
aI47793
aI47894
aI47950
aI47970
aI47978
aI47999
aI48001
aI48032
aI48043
aI48082
aI48142
aI48161
aI48214
aI48304
aI48319
aI48326
aI48342
aI48394
aI48412
aI48516
aI48560
aI48596
aI48598
aI48638
aI48649
aI48696
aI48738
aI48744
aI48774
aI48780
aI48783
aI48879
aI48883
aI48997
aI49130
aI49265
aI49280
aI49284
aI49314
aI49347
aI49524
aI49530
aI49647
aI49651
aI49666
aI49688
aI49772
aI49793
aI49822
aI49824
aI49910
aI49932
aI49957
aI49961
aI50005
aI50064
aI50068
aI50158
aI50160
aI50274
aI50442
aI50514
aI50685
aI50792
aI50794
aI50796
aI50800
aI50802
aI50804
aI50842
aI50872
aI50923
aI51024
aI51037
aI51080
aI51086
aI51091
aI51167
aI51174
aI51314
aI51357
aI51471
aI51540
aI51545
aI51694
aI51709
aI51834
aI51884
aI51903
aI51925
aI51931
aI51933
aI51935
aI52042
aI52241
aI52319
aI52328
aI52375
aI52458
aI52579
aI52604
aI52668
aI52712
aI52724
aI52952
aI52967
aI52973
aI52975
aI53123
aI53127
aI53129
aI53161
aI53318
aI53447
aI53550
aI53574
aI53894
aI53921
aI53953
aI54001
aI54116
aI54121
aI54190
aI54274
aI54276
aI54281
aI54372
aI54736
aI54745
aI54771
aI54780
aI54787
aI54796
aI54962
aI54997
aI55036
aI55052
aI55061
aI55067
aI55069
aI55080
aI55094
aI55110
aI55112
aI55116
aI55118
aI55205
aI55207
aI55247
aI55253
aI55259
aI55261
aI55267
aI55269
aI55272
aI55274
aI55276
aI55278
aI55280
aI55290
aI55294
aI55363
aI55391
aI55442
aI55444
aI55451
aI55555
aI55721
aI55765
aI55805
aI55814
aI55820
aI55844
aI55854
aI55872
aI55908
aI55946
aI56003
aI56022
aI56060
aI56169
aI56274
aI56286
aI56333
aI56339
aI56367
aI56389
aI56587
aI56607
aI56715
aI56757
aI56782
aI56788
aI56837
aI56908
aI56921
aI56941
aI57147
aI57183
aI57243
aI57274
aI57499
aI57502
aI57504
aI57528
aI57669
aI57843
aI58025
aI58047
aI58078
aI58103
aI58105
aI58107
aI58154
aI58287
aI58297
aI58301
aI58303
aI58306
aI58351
aI58492
aI58554
aI58559
aI58783
aI58803
aI58806
aI58839
aI58842
aI58876
aI59016
aI59018
aI59118
aI59141
aI59336
aI59369
aI59387
aI59440
aI59549
aI59604
aI59810
aI59814
aI59947
aI59985
aI59995
aI60030
aI60037
aI60046
aI60289
aI60293
aI60647
aI60684
aI60735
aI60753
aI60760
aI60857
aI60885
aI60894
aI60904
aI60943
aI60950
aI61011
aI61026
aI61071
aI61073
aI61123
aI61167
aI61236
aI61240
aI61319
aI61323
aI61352
aI61406
aI61628
aI61705
aI62155
aI62208
aI62250
aI62293
aI62344
aI62374
aI62394
aI62434
aI62437
aI62511
aI62553
aI62644
aI62792
aI62799
aI63033
aI63062
aI63072
aI63082
aI63179
aI63222
aI63312
aI63515
aI63768
aI63808
aI63853
aI63876
aI63992
aI64034
aI64114
aI64197
aI64231
aI64497
aI64499
aI64501
aI64575
aI64614
aI64620
aI64622
aI64716
aI64839
aI64957
aI64983
aI64993
aI65037
aI65126
aI65130
aI65193
aI65216
aI65230
aI65359
aI65514
aI65596
aI65631
aI65810
aI65882
aI66198
aI66203
aI66310
aI66371
aI66509
aI66511
aI66544
aI66665
aI66744
aI66934
aI67197
aI67255
aI67267
aI67508
aI67618
aI67734
aI67799
aI67923
aI68073
aI68135
aI68157
aI68159
aI68194
aI68237
aI68269
aI68347
aI68486
aI68552
aI68554
aI68597
aI68650
aI68659
aI68872
aI68932
aI68954
aI68959
aI69118
aI69131
aI69134
aI69140
aI69224
aI69251
aI69304
aI69306
aI69394
aI69481
aI69495
aI69516
aI69640
aI69654
aI69712
aI69720
aI69757
aI69849
aI69860
aI69904
aI69951
aI70015
aI70159
aI70183
aI70293
aI70301
aI70334
aI70451
aI70521
aI70599
aI70637
aI70687
aI70708
aI70728
aI70990
aI71033
aI71108
aI71147
aI71156
aI71211
aI71268
aI71304
aI71327
aI71429
aI71438
aI71453
aI71464
aI71466
aI71518
aI71550
aI71579
aI71619
aI71745
aI71810
aI71823
aI71838
aI71867
aI71899
aI71902
aI71999
aI72011
aI72104
aI72142
aI72167
aI72178
aI72294
aI72308
aI72330
aI72378
aI72395
aI72405
aI72407
aI72479
aI72489
aI72554
aI72605
aI72624
aI72641
aI72694
aI72720
aI72731
aI72733
aI72919
aI73023
aI73266
aI73268
aI73290
aI73321
aI73344
aI73386
aI73676
aI73681
aI73741
aI73808
aI73822
aI73876
aI73881
aI74226
aI74228
aI74275
aI74282
aI74324
aI74342
aI74458
aI74508
aI74510
aI74545
aI74624
aI74685
aI74688
aI74696
aI74727
aI74754
aI74795
aI74868
aI74916
aI74948
aI75341
aI75395
aI75446
aI75813
aI76054
aI76091
aI76175
aI76763
aI77201
aI77266
aI77364
aI77414
aI77421
aI77709
aI77800
aI77846
aI77866
aI77881
aI77893
aI78034
aI78039
aI78103
aI78116
aI78142
aI78174
aI78218
aI78316
aI78467
aI78574
aI78703
aI78836
aI78959
aI79132
aI79224
aI79242
aI79259
aI79357
aI79501
aI79684
aI79798
aI79897
aI79946
aI80124
aI80126
aI80454
aI80463
aI80478
aI80489
aI80551
aI80553
aI80572
aI80584
aI80586
aI80590
aI80693
aI80727
aI80831
aI80839
aI80880
aI80917
aI80969
aI81087
aI81132
aI81257
aI81456
aI81512
aI81520
aI81562
aI81591
aI81681
aI81782
aI81784
aI81786
aI81788
aI81791
aI81819
aI81831
aI81845
aI81932
aI81949
aI82088
aI82152
aI82167
aI82202
aI82378
aI82499
aI82527
aI82534
aI82641
aI82684
aI82744
aI82765
aI82767
aI83086
aI83270
aI83369
aI83480
aI83601
aI83796
aI83910
aI83969
aI83976
aI84187
aI84240
aI84392
aI84523
aI84601
aI84716
aI84844
aI84847
aI84950
aI84952
aI85020
aI85025
aI85213
aI85342
aI85401
aI85414
aI85438
aI85881
aI85885
aI86000
aI86320
aI86332
aI86355
aI86487
aI86548
aI86644
aI86721
aI86781
aI86815
aI86817
aI86898
aI87028
aI87194
aI87234
aI87298
aI87304
aI87413
aI87522
aI87660
aI87834
aI88125
aI88129
aI88163
aI88179
aI88327
aI88448
aI88593
aI88697
aI88744
aI88810
aI89039
aI89047
aI89085
aI89087
aI89118
aI89492
aI89580
aI89582
aI89678
aI89753
aI89759
aI89761
aI89774
aI89804
aI89862
aI89864
aI89898
aI89904
aI90057
aI90243
aI90249
aI90343
aI90353
aI90357
aI90374
aI90376
aI90428
aI90430
aI90439
aI90471
aI90524
aI90528
aI90531
aI90719
aI90738
aI90809
aI90866
aI90888
aI90945
aI91077
aI91079
aI91104
aI91126
aI91128
aI91261
aI91273
aI91325
aI91414
aI91470
aI91500
aI91535
aI91571
aI91622
aI91653
aI91658
aI91666
aI91784
aI91842
aI91890
aI91935
aI91976
aI91981
aI92048
aI92094
aI92198
aI92234
aI92243
aI92259
aI92422
aI92439
aI92509
aI92637
aI92643
aI92665
aI92674
aI92694
aI92954
aI93114
aI93242
aI93443
aI93502
aI93512
aI93598
aI93610
aI93740
aI93790
aI93855
aI93988
aI94070
aI94325
aI94494
aI94661
aI94780
aI94799
aI94810
aI94896
aI94919
aI94931
aI94959
aI94985
aI95067
aI95088
aI95135
aI95175
aI95199
aI95307
aI95309
aI95449
aI95508
aI95558
aI95583
aI95624
aI95839
aI95939
aI96020
aI96084
aI96121
aI96373
aI96430
aI96432
aI96471
aI96518
aI96520
aI96567
aI96655
aI96728
aI96811
aI96821
aI96829
aI96832
aI96861
aI96945
aI96964
aI96975
aI97024
aI97304
aI97328
aI97470
aI97752
aI97858
aI97860
aI97870
aI97904
aI97921
aI97923
aI97936
aI97938
aI98061
aI98154
aI98203
aI98230
aI98296
aI98361
aI98585
aI98604
aI98836
aI98961
aI99005
aI99030
aI99114
aI99117
aI99145
aI99149
aI99532
aI99574
aI99636
aI99728
aI99750
aI99764
aI99992
aI100226
aI100277
aI100302
aI100306
aI100383
aI100487
aI100527
aI100714
aI100737
aI100843
aI101070
aI101088
aI101360
aI101415
aI101525
aI101531
aI101884
aI101895
aI101973
aI102088
aI102165
aI102194
aI102338
aI102378
aI102407
aI102684
aI102735
aI102760
aI102800
aI102819
aI102993
aI103027
aI103137
aI103245
aI103249
aI103253
aI103339
aI103449
aI103539
aI103543
aI103606
aI103624
aI103685
aI103801
aI103865
aI103980
aI103984
aI104283
aI104303
aI104337
aI104374
aI104863
aI104879
aI104913
aI104944
aI105121
aI105197
aI105211
aI105213
aI105246
aI105351
aI105355
aI105504
aI105593
aI105720
aI105731
aI105755
aI105801
aI105835
aI105844
aI105954
aI106100
aI106144
aI106330
aI106438
aI106441
aI106594
aI106642
aI106648
aI106766
aI106782
aI106839
aI106873
aI106883
aI106916
aI106918
aI106920
aI107013
aI107069
aI107141
aI107159
aI107314
aI107406
aI107408
aI107410
aI107771
aI107997
aI108188
aI108192
aI108540
aI108601
aI108715
aI108727
aI108928
aI108981
aI109161
aI109187
aI109191
aI109295
aI109374
aI109383
aI109569
aI109596
aI109673
aI109723
aI109850
aI109853
aI109864
aI109897
aI109968
aI110127
aI110281
aI110330
aI110586
aI110603
aI110611
aI110730
aI110826
aI110882
aI111732
aI111795
aI111817
aI111844
aI111913
aI111921
aI112070
aI112183
aI112290
aI112316
aI112421
aI112454
aI112512
aI112515
aI112552
aI112556
aI112580
aI112749
aI112804
aI113207
aI113225
aI113275
aI113280
aI113350
aI113378
aI113394
aI113416
aI113604
aI113705
aI113741
aI113829
aI113849
aI114028
aI114060
aI114066
aI114074
aI114184
aI114396
aI114554
aI114601
aI114627
aI114670
aI114678
aI114795
aI114925
aI115170
aI115210
aI115216
aI115569
aI115680
aI115713
aI115828
aI115969
aI116138
aI116207
aI116411
aI116529
aI116724
aI116797
aI116799
aI116817
aI116887
aI116897
aI116985
aI117107
aI117133
aI117176
aI117192
aI117466
aI117529
aI117646
aI117867
aI117881
aI118166
aI118198
aI118248
aI118326
aI118354
aI118572
aI118700
aI118702
aI118862
aI118896
aI118900
aI118985
aI119068
aI119218
aI119828
aI120130
aI120138
aI120625
aI120637
aI120761
aI120783
aI120827
aI121035
aI121169
aI122260
aI122490
aI123545
aI123553
aI123947
aI124484
aI124859
aI125916
aI126426
aI126430
aI127108
aI127114
aI127116
aI127132
aI127134
aI127136
aI127184
aI127198
aI127202
aI127212
aI127298
aI128488
aI128512
aI128594
aI128620
aI128736
aI128832
aI128908
aI129354
aI129428
aI129659
aI129937
aI130050
aI130052
aI130073
aI130083
aI130087
aI130452
aI130482
aI130576
aI130976
aI131796
aI131920
aI132153
aI132333
aI132335
aI132424
aI132454
aI132462
aI132496
aI132618
aI132796
aI132800
aI133281
aI133365
aI133545
aI133645
aI133780
aI133782
aI134021
aI134041
aI134095
aI134130
aI134214
aI134252
aI134515
aI134528
aI134775
aI134853
aI134881
aI135198
aI135288
aI135815
aI136018
aI136562
aI136564
aI136654
aI136664
aI136778
aI136840
aI136850
aI137218
aI137517
aI137595
aI137857
aI138186
aI138208
aI138210
aI138396
aI138632
aI138702
aI139052
aI139130
aI139385
aI139415
aI139642
aI139644
aI139655
aI140162
aI140174
aI140237
aI140247
aI140289
aI140525
aI140627
aI140715
aI140816
aI140850
aI140928
aI141004
aI141422
aI141646
aI141668
aI141749
aI141810
aI141818
aI141890
aI142222
aI142372
aI142420
aI142424
aI142448
aI142507
aI142536
aI143031
aI143257
aI143365
aI143367
aI143385
aI143458
aI143525
aI144352
aI144478
aI144606
aI144714
aI145150
aI145418
aI145491
aI145745
aI145839
aI146244
aI146656
aI146730
aI147002
aI147372
aI147374
aI147378
aI147380
aI147410
aI147936
aI148424
aI148482
aI148626
aI148775
aI149011
aI149334
aI149612
aI150548
aI150596
aI151501
aI151557
aI151653
aI151687
aI151695
aI151777
aI152065
aI152071
aI152085
aI152270
aI152284
aI153070
aI153408
aI155064
aI155288
aI155659
aI156387
aI156553
aI156607
aI157122
aI157130
aI157200
aI157369
aI157407
aI157699
aI158027
aI158528
aI158783
aI158874
aI158882
aI158966
aI158972
aI159077
aI159193
aI159415
aI159717
aI159811
aI159976
aI160400
aI160422
aI160527
aI160644
aI160646
aI160730
aI160836
aI160954
aI160980
aI161032
aI161127
aI161354
aI161582
aI161594
aI161830
aI162414
aI162598
aI162606
aI162828
aI162982
aI163134
aI163645
aI163809
aI164280
aI164367
aI164707
aI164909
aI165075
aI165347
aI165529
aI165549
aI165551
aI165959
aI166015
aI166291
aI166534
aI166635
aI166643
aI166705
aI166946
aI167296
aI167380
aI167732
aI167790
aI168266
aI168350
aI168456
aI168492
aI168608
aI168612
aI168712
aI169958
aI169992
aI170355
aI170399
aI170401
aI170697
aI170705
aI170875
aI170993
aI171023
aI171701
aI171759
aI171765
aI171867
aI171917
aI172013
aI172233
aI173145
aI173197
aI173209
aI174053
aI174055
aI174141
aI174727
aI175585
aI176413
aI176415
aI176419
aI176579
aI176805
aI177593
aI177763
aI178061
aI178615
aI179133
aI179511
aI179709
aI179813
aI179815
aI179817
aI180031
aI180045
aI180095
aI180231
aI180263
aI180297
aI180497
aI180985
aI181315
aI182793
aI183011
aI183317
aI184349
aI184721
aI184931
aI184997
aI185029
aI185033
aI187031
aI188675
aI189043
aI189713
aI190207
aI190213
aI190215
aI193567
aI193571
aI193585
asVWestern
p8
(lp9
I163
aI210
aI266
aI303
aI368
aI383
aI416
aI432
aI458
aI487
aI553
aI590
aI599
aI714
aI800
aI948
aI1007
aI1008
aI1201
aI1209
aI1254
aI1266
aI1283
aI1304
aI1378
aI1379
aI1408
aI1887
aI1928
aI2012
aI2016
aI2055
aI2070
aI2103
aI2142
aI2328
aI2401
aI2478
aI2527
aI2701
aI2896
aI2921
aI2922
aI2951
aI3037
aI3074
aI3093
aI3267
aI3365
aI3368
aI3467
aI3494
aI3508
aI3624
aI3671
aI3681
aI3727
aI3737
aI3792
aI3806
aI3871
aI3873
aI4031
aI4035
aI4042
aI4321
aI4323
aI4327
aI4329
aI4406
aI4428
aI4534
aI4535
aI4709
aI4710
aI4721
aI4785
aI4962
aI5063
aI5300
aI5372
aI5375
aI5389
aI5435
aI5440
aI5456
aI5550
aI5699
aI5826
aI6386
aI6412
aI6422
aI6428
aI6429
aI6461
aI6617
aI6691
aI6785
aI6950
aI7027
aI7070
aI7072
aI7218
aI7379
aI7614
aI7889
aI7894
aI7896
aI8094
aI8481
aI25959
aI26142
aI26249
aI26258
aI26649
aI26750
aI26901
aI27105
aI27450
aI27683
aI32392
aI32515
aI33126
aI37211
aI39381
aI39435
aI42556
aI43419
aI49389
aI54121
aI54997
aI55363
aI56782
aI61289
aI61986
aI63853
aI66785
aI70492
aI75389
aI77931
aI78467
aI78620
aI81132
aI81681
aI82459
aI82857
aI83374
aI83613
aI84944
aI93193
aI99114
aI103384
aI111743
aI115216
aI119828
aI125221
aI128087
aI128360
aI128695
aI133802
aI144976
aI146024
aI148652
aI157108
aI162350
aI171759
aI175197
asVSci-Fi
p10
(lp11
I24
aI29
aI32
aI66
aI76
aI103
aI160
aI172
aI173
aI196
aI198
aI208
aI256
aI260
aI273
aI292
aI316
aI327
aI329
aI332
aI338
aI379
aI426
aI435
aI442
aI480
aI504
aI512
aI519
aI541
aI546
aI589
aI610
aI611
aI671
aI673
aI674
aI680
aI692
aI718
aI737
aI741
aI748
aI780
aI788
aI849
aI880
aI924
aI968
aI1019
aI1037
aI1077
aI1097
aI1127
aI1129
aI1196
aI1199
aI1200
aI1206
aI1210
aI1214
aI1223
aI1232
aI1240
aI1253
aI1255
aI1270
aI1274
aI1301
aI1306
aI1320
aI1334
aI1340
aI1356
aI1371
aI1372
aI1373
aI1374
aI1375
aI1376
aI1391
aI1396
aI1479
aI1527
aI1544
aI1580
aI1584
aI1590
aI1591
aI1603
aI1646
aI1653
aI1676
aI1682
aI1690
aI1726
aI1748
aI1762
aI1779
aI1831
aI1862
aI1876
aI1882
aI1909
aI1917
aI1921
aI1924
aI1965
aI2009
aI2010
aI2011
aI2012
aI2021
aI2034
aI2038
aI2046
aI2053
aI2054
aI2091
aI2094
aI2105
aI2117
aI2134
aI2136
aI2232
aI2256
aI2275
aI2287
aI2288
aI2311
aI2322
aI2346
aI2363
aI2364
aI2365
aI2367
aI2368
aI2377
aI2393
aI2407
aI2408
aI2428
aI2448
aI2450
aI2454
aI2455
aI2456
aI2495
aI2498
aI2525
aI2526
aI2527
aI2528
aI2529
aI2530
aI2531
aI2532
aI2533
aI2549
aI2553
aI2554
aI2571
aI2594
aI2600
aI2613
aI2614
aI2615
aI2625
aI2628
aI2640
aI2641
aI2642
aI2643
aI2648
aI2656
aI2657
aI2660
aI2661
aI2662
aI2664
aI2665
aI2668
aI2672
aI2681
aI2698
aI2701
aI2716
aI2717
aI2722
aI2740
aI2761
aI2807
aI2808
aI2827
aI2851
aI2900
aI2901
aI2916
aI2968
aI2985
aI2986
aI3008
aI3018
aI3024
aI3032
aI3033
aI3054
aI3070
aI3156
aI3175
aI3190
aI3269
aI3300
aI3326
aI3354
aI3401
aI3438
aI3471
aI3474
aI3503
aI3527
aI3572
aI3573
aI3574
aI3576
aI3592
aI3593
aI3638
aI3648
aI3658
aI3660
aI3661
aI3662
aI3663
aI3664
aI3686
aI3687
aI3696
aI3697
aI3698
aI3699
aI3700
aI3701
aI3702
aI3703
aI3704
aI3745
aI3758
aI3770
aI3793
aI3802
aI3826
aI3827
aI3833
aI3837
aI3864
aI3926
aI3927
aI3930
aI3932
aI3933
aI3937
aI3959
aI3981
aI3986
aI3994
aI4006
aI4015
aI4051
aI4079
aI4092
aI4121
aI4125
aI4131
aI4133
aI4198
aI4275
aI4343
aI4370
aI4412
aI4434
aI4443
aI4446
aI4454
aI4480
aI4492
aI4497
aI4526
aI4533
aI4544
aI4545
aI4552
aI4553
aI4571
aI4580
aI4587
aI4625
aI4626
aI4638
aI4643
aI4713
aI4735
aI4738
aI4777
aI4812
aI4813
aI4850
aI4874
aI4878
aI4887
aI4909
aI4939
aI4941
aI4942
aI4952
aI4953
aI4966
aI4975
aI4980
aI4987
aI5046
aI5054
aI5062
aI5072
aI5094
aI5146
aI5171
aI5181
aI5189
aI5219
aI5264
aI5323
aI5349
aI5356
aI5378
aI5397
aI5410
aI5437
aI5444
aI5445
aI5459
aI5468
aI5478
aI5497
aI5502
aI5522
aI5523
aI5530
aI5543
aI5544
aI5596
aI5597
aI5604
aI5638
aI5640
aI5700
aI5704
aI5746
aI5764
aI5779
aI5853
aI5881
aI5882
aI5903
aI5919
aI5944
aI5979
aI5999
aI6078
aI6153
aI6184
aI6239
aI6250
aI6264
aI6283
aI6294
aI6302
aI6303
aI6305
aI6333
aI6350
aI6365
aI6395
aI6502
aI6534
aI6537
aI6541
aI6574
aI6583
aI6597
aI6631
aI6645
aI6654
aI6656
aI6659
aI6678
aI6731
aI6734
aI6774
aI6790
aI6835
aI6836
aI6882
aI6899
aI6902
aI6934
aI6949
aI6959
aI6966
aI6969
aI6979
aI6996
aI7001
aI7099
aI7118
aI7123
aI7163
aI7236
aI7254
aI7266
aI7361
aI7481
aI7569
aI7649
aI7743
aI7810
aI7811
aI7812
aI7841
aI7842
aI7845
aI7846
aI7891
aI7900
aI7984
aI7986
aI7988
aI7991
aI8092
aI8136
aI8137
aI8138
aI8147
aI8169
aI8361
aI8371
aI8426
aI8427
aI8447
aI8477
aI8500
aI8578
aI8591
aI8626
aI8633
aI8636
aI8644
aI8677
aI8690
aI8743
aI8782
aI8800
aI8810
aI8830
aI8861
aI8865
aI8870
aI8914
aI8939
aI9004
aI9005
aI9008
aI26124
aI26285
aI26365
aI26409
aI26444
aI26467
aI26492
aI26510
aI26542
aI26554
aI26590
aI26593
aI26603
aI26629
aI26701
aI26764
aI26819
aI26849
aI26861
aI26887
aI26985
aI27003
aI27032
aI27074
aI27155
aI27156
aI27266
aI27311
aI27420
aI27482
aI27537
aI27549
aI27611
aI27618
aI27660
aI27683
aI27728
aI27788
aI27793
aI27904
aI27905
aI30894
aI31150
aI31184
aI31424
aI31553
aI31660
aI31804
aI32031
aI32213
aI32554
aI32898
aI33004
aI33090
aI33493
aI33801
aI34048
aI34150
aI34292
aI34319
aI34334
aI34405
aI36363
aI36509
aI37380
aI37386
aI37830
aI38583
aI40339
aI40478
aI40697
aI42422
aI42718
aI43928
aI43932
aI44020
aI44191
aI44243
aI44731
aI44777
aI44828
aI44849
aI45499
aI46530
aI47404
aI47997
aI48774
aI48780
aI49110
aI49278
aI51412
aI51562
aI51698
aI51709
aI52281
aI52287
aI52328
aI52462
aI52722
aI52885
aI53000
aI53161
aI53453
aI53464
aI53996
aI54771
aI54995
aI55061
aI55232
aI55908
aI56003
aI56022
aI56145
aI56174
aI56251
aI56801
aI56921
aI57368
aI57504
aI57637
aI57640
aI57772
aI58025
aI58297
aI58332
aI58404
aI58783
aI59014
aI59037
aI59315
aI59615
aI60037
aI60040
aI60069
aI60161
aI60471
aI60514
aI60516
aI60674
aI60684
aI60760
aI60904
aI61160
aI61210
aI61248
aI61350
aI61692
aI62336
aI62376
aI62383
aI62834
aI62836
aI62956
aI62970
aI63433
aI64497
aI64997
aI65642
aI65982
aI66171
aI66297
aI66934
aI67197
aI67408
aI67799
aI68237
aI68319
aI68358
aI68791
aI68945
aI69278
aI69453
aI69526
aI70286
aI70305
aI70336
aI70521
aI70533
aI70599
aI71057
aI71106
aI71129
aI71135
aI71205
aI71254
aI71302
aI71468
aI71484
aI71530
aI71999
aI72104
aI72308
aI72378
aI72701
aI72998
aI74095
aI74668
aI74685
aI74868
aI75416
aI75985
aI76077
aI77561
aI77795
aI77931
aI78266
aI79057
aI79132
aI79357
aI80083
aI80363
aI80917
aI80969
aI81564
aI82095
aI82461
aI83613
aI84152
aI84187
aI84414
aI84772
aI84799
aI84954
aI85056
aI85131
aI85179
aI85261
aI85414
aI85736
aI85780
aI86320
aI86355
aI86835
aI86864
aI87192
aI87232
aI87306
aI87430
aI87520
aI88140
aI88699
aI88744
aI89039
aI89470
aI89745
aI89898
aI89945
aI90249
aI90345
aI90405
aI91233
aI91500
aI91660
aI92192
aI92420
aI92681
aI92694
aI92760
aI93363
aI93563
aI93805
aI93840
aI94018
aI94262
aI94777
aI94799
aI94810
aI94864
aI95165
aI95182
aI95510
aI95720
aI95796
aI95875
aI96608
aI96610
aI96655
aI96691
aI96737
aI96832
aI97752
aI97988
aI98124
aI98607
aI99764
aI99853
aI99917
aI100302
aI100579
aI100611
aI100810
aI101076
aI101864
aI102025
aI102070
aI102125
aI102445
aI102880
aI103042
aI103228
aI103253
aI103341
aI103596
aI103772
aI104017
aI104243
aI104419
aI104780
aI104841
aI104875
aI106002
aI106487
aI106642
aI106920
aI106927
aI107406
aI107410
aI108190
aI108689
aI108945
aI109187
aI109487
aI109848
aI110102
aI110553
aI110730
aI111360
aI111362
aI111364
aI111551
aI111759
aI112326
aI112370
aI112623
aI112804
aI112852
aI112868
aI113345
aI113350
aI113378
aI113741
aI114180
aI114847
aI114935
aI115680
aI115713
aI116823
aI116941
aI117529
aI118290
aI119167
aI120799
aI121007
aI122627
aI122882
aI122886
aI122892
aI122898
aI122900
aI122902
aI122904
aI122906
aI122912
aI122916
aI122918
aI122920
aI122922
aI122924
aI124851
aI125221
aI126426
aI127096
aI127323
aI128542
aI128944
aI128975
aI128991
aI129397
aI129779
aI130444
aI130490
aI130518
aI130520
aI130576
aI130840
aI130842
aI132046
aI132362
aI133217
aI133377
aI133771
aI134130
aI134170
aI135133
aI135137
aI135216
aI135456
aI135518
aI135536
aI135567
aI135569
aI135885
aI136305
aI136449
aI136800
aI136859
aI136864
aI138632
aI139859
aI140359
aI140481
aI140541
aI140711
aI140852
aI140956
aI141004
aI141544
aI142420
aI142424
aI142509
aI143255
aI143365
aI144734
aI145724
aI147372
aI147376
aI147378
aI147380
aI147382
aI147384
aI148172
aI148775
aI149144
aI149146
aI149902
aI150596
aI151479
aI151695
aI151745
aI151781
aI156675
aI157865
aI158027
aI158388
aI158956
aI159403
aI160080
aI160565
aI160978
aI161044
aI161594
aI161918
aI162982
aI163056
aI163985
aI164179
aI164226
aI164367
aI164881
aI165343
aI165639
aI166203
aI166526
aI166528
aI166635
aI167370
aI168026
aI168252
aI168358
aI168612
aI169904
aI169982
aI169984
aI170289
aI170297
aI171765
aI171811
aI172875
aI172881
aI172887
aI173145
aI173291
aI173307
aI173925
aI174053
aI175197
aI176371
aI177285
aI179053
aI179819
aI182639
aI182715
aI182731
aI183635
aI184053
aI184253
aI184987
aI185585
aI186587
aI187031
aI187593
aI187595
aI188189
aI188301
aI189547
aI190183
aI191005
aI193565
asVHorror
p12
(lp13
I12
aI22
aI70
aI92
aI93
aI152
aI177
aI183
aI188
aI196
aI220
aI253
aI273
aI285
aI311
aI328
aI330
aI332
aI366
aI382
aI407
aI426
aI512
aI532
aI593
aI606
aI610
aI611
aI724
aI735
aI742
aI775
aI799
aI841
aI842
aI879
aI891
aI968
aI1037
aI1076
aI1105
aI1128
aI1130
aI1200
aI1214
aI1215
aI1219
aI1241
aI1255
aI1258
aI1261
aI1320
aI1321
aI1322
aI1323
aI1324
aI1325
aI1326
aI1327
aI1328
aI1329
aI1330
aI1331
aI1332
aI1333
aI1334
aI1335
aI1336
aI1337
aI1339
aI1340
aI1341
aI1342
aI1345
aI1346
aI1347
aI1348
aI1349
aI1350
aI1355
aI1387
aI1388
aI1389
aI1407
aI1590
aI1603
aI1623
aI1644
aI1655
aI1690
aI1717
aI1762
aI1771
aI1862
aI1891
aI1924
aI1969
aI1970
aI1971
aI1972
aI1973
aI1974
aI1975
aI1976
aI1977
aI1978
aI1979
aI1980
aI1981
aI1982
aI1983
aI1984
aI1985
aI1986
aI1987
aI1990
aI1991
aI1992
aI1993
aI1994
aI1995
aI1996
aI1997
aI1998
aI1999
aI2003
aI2004
aI2026
aI2052
aI2107
aI2119
aI2120
aI2121
aI2122
aI2148
aI2149
aI2159
aI2160
aI2163
aI2164
aI2167
aI2232
aI2256
aI2279
aI2287
aI2288
aI2315
aI2327
aI2328
aI2338
aI2363
aI2364
aI2366
aI2377
aI2389
aI2428
aI2446
aI2448
aI2451
aI2454
aI2455
aI2456
aI2459
aI2460
aI2462
aI2465
aI2488
aI2513
aI2514
aI2515
aI2516
aI2517
aI2525
aI2548
aI2550
aI2551
aI2553
aI2554
aI2560
aI2606
aI2613
aI2614
aI2617
aI2633
aI2634
aI2644
aI2648
aI2651
aI2652
aI2654
aI2655
aI2656
aI2657
aI2660
aI2664
aI2668
aI2699
aI2710
aI2713
aI2719
aI2722
aI2740
aI2746
aI2747
aI2754
aI2762
aI2782
aI2784
aI2787
aI2789
aI2790
aI2793
aI2810
aI2827
aI2841
aI2867
aI2868
aI2878
aI2898
aI2900
aI2901
aI2902
aI2903
aI2974
aI2982
aI2992
aI2995
aI3013
aI3016
aI3017
aI3018
aI3021
aI3024
aI3075
aI3081
aI3113
aI3264
aI3273
aI3280
aI3294
aI3300
aI3344
aI3355
aI3459
aI3476
aI3499
aI3535
aI3546
aI3550
aI3563
aI3572
aI3573
aI3574
aI3576
aI3587
aI3627
aI3648
aI3652
aI3658
aI3660
aI3661
aI3662
aI3663
aI3664
aI3676
aI3686
aI3692
aI3693
aI3694
aI3695
aI3696
aI3706
aI3708
aI3709
aI3727
aI3732
aI3770
aI3785
aI3798
aI3826
aI3830
aI3832
aI3833
aI3837
aI3838
aI3839
aI3840
aI3843
aI3847
aI3849
aI3863
aI3908
aI3917
aI3918
aI3919
aI3928
aI3930
aI3932
aI3933
aI3938
aI3939
aI3940
aI3941
aI3942
aI3962
aI3973
aI4030
aI4036
aI4051
aI4105
aI4124
aI4128
aI4135
aI4138
aI4143
aI4148
aI4195
aI4210
aI4403
aI4404
aI4412
aI4437
aI4480
aI4497
aI4517
aI4518
aI4533
aI4541
aI4552
aI4645
aI4658
aI4670
aI4697
aI4715
aI4720
aI4725
aI4735
aI4744
aI4754
aI4786
aI4789
aI4792
aI4794
aI4827
aI4833
aI4852
aI4865
aI4876
aI4893
aI4902
aI5065
aI5105
aI5128
aI5136
aI5146
aI5165
aI5189
aI5205
aI5219
aI5254
aI5311
aI5323
aI5356
aI5433
aI5476
aI5478
aI5489
aI5502
aI5543
aI5556
aI5569
aI5570
aI5588
aI5640
aI5649
aI5663
aI5679
aI5704
aI5735
aI5736
aI5746
aI5749
aI5755
aI5764
aI5771
aI5779
aI5784
aI5797
aI5833
aI5853
aI5883
aI5884
aI5891
aI5909
aI5925
aI5979
aI5980
aI6040
aI6044
aI6058
aI6063
aI6140
aI6145
aI6148
aI6220
aI6242
aI6250
aI6290
aI6323
aI6379
aI6395
aI6502
aI6514
aI6530
aI6615
aI6629
aI6631
aI6656
aI6659
aI6665
aI6695
aI6707
aI6715
aI6731
aI6744
aI6746
aI6748
aI6754
aI6755
aI6774
aI6803
aI6820
aI6835
aI6872
aI6880
aI6888
aI6952
aI6958
aI6967
aI6975
aI6987
aI7001
aI7022
aI7046
aI7114
aI7115
aI7116
aI7117
aI7202
aI7208
aI7235
aI7245
aI7266
aI7282
aI7319
aI7360
aI7373
aI7387
aI7411
aI7449
aI7454
aI7477
aI7492
aI7561
aI7564
aI7636
aI7646
aI7650
aI7657
aI7713
aI7742
aI7845
aI7846
aI7882
aI7883
aI7891
aI7900
aI7930
aI7951
aI7982
aI7984
aI7987
aI7993
aI8019
aI8035
aI8092
aI8136
aI8137
aI8138
aI8196
aI8225
aI8369
aI8405
aI8482
aI8500
aI8507
aI8521
aI8578
aI8626
aI8670
aI8810
aI8815
aI8830
aI8861
aI8874
aI8894
aI8906
aI8928
aI8947
aI8957
aI8967
aI8985
aI9008
aI25746
aI26116
aI26122
aI26265
aI26303
aI26357
aI26409
aI26429
aI26492
aI26523
aI26603
aI26606
aI26629
aI26693
aI26717
aI26849
aI26854
aI26887
aI27003
aI27008
aI27140
aI27317
aI27434
aI27441
aI27473
aI27482
aI27491
aI27563
aI27584
aI27595
aI27604
aI27667
aI27683
aI27746
aI27751
aI27772
aI27778
aI27784
aI27793
aI27839
aI30745
aI30894
aI31424
aI31427
aI31431
aI31696
aI31804
aI31909
aI32011
aI32060
aI32213
aI32743
aI32914
aI33085
aI33164
aI33294
aI33644
aI33683
aI33834
aI33896
aI34143
aI34292
aI34323
aI34532
aI35957
aI36401
aI36509
aI36533
aI37380
aI37444
aI37720
aI38583
aI39400
aI39446
aI39801
aI40478
aI40617
aI40723
aI40732
aI41014
aI42285
aI42723
aI42738
aI43549
aI43679
aI43904
aI43932
aI44238
aI44241
aI44243
aI44397
aI44731
aI44773
aI44777
aI44828
aI44972
aI45081
aI45361
aI45662
aI46965
aI47810
aI47937
aI47952
aI48150
aI48518
aI48678
aI48877
aI50147
aI50440
aI50445
aI50613
aI50796
aI50800
aI50804
aI51498
aI51545
aI51666
aI51709
aI51927
aI51937
aI52281
aI52283
aI52644
aI52831
aI52950
aI53000
aI53127
aI53280
aI53326
aI53435
aI53450
aI53468
aI53519
aI53953
aI54771
aI54785
aI54910
aI54995
aI55232
aI55282
aI55492
aI55553
aI55577
aI56145
aI56174
aI56336
aI56339
aI56620
aI56757
aI56801
aI57274
aI57421
aI57502
aI57637
aI57910
aI58332
aI58964
aI58975
aI59129
aI59131
aI59306
aI59604
aI59727
aI59738
aI59814
aI59915
aI60030
aI60303
aI60363
aI60471
aI60522
aI60538
aI60832
aI60941
aI61240
aI61262
aI61692
aI62008
aI62299
aI63436
aI63826
aI64010
aI65601
aI65682
aI65882
aI66090
aI66310
aI66427
aI66783
aI66943
aI67168
aI67186
aI68952
aI69140
aI69211
aI69275
aI69720
aI69746
aI70159
aI70206
aI70208
aI70946
aI70994
aI71135
aI71205
aI71252
aI71304
aI71341
aI71379
aI71494
aI71500
aI71535
aI71732
aI72129
aI72165
aI72407
aI72731
aI73160
aI73211
aI73268
aI73488
aI73929
aI74075
aI74095
aI74228
aI74370
aI74452
aI74685
aI74750
aI74868
aI75389
aI75395
aI76030
aI77427
aI77798
aI78266
aI78626
aI79251
aI79868
aI79879
aI80094
aI80162
aI80363
aI80831
aI80846
aI81132
aI81417
aI81535
aI82041
aI82366
aI83134
aI83601
aI84189
aI84799
aI84952
aI85397
aI85412
aI85788
aI86068
aI86286
aI86295
aI86835
aI88272
aI88932
aI89028
aI89030
aI89072
aI89208
aI89343
aI89427
aI89837
aI89945
aI90345
aI90469
aI91660
aI91947
aI91974
aI92192
aI92309
aI92391
aI92422
aI92760
aI93139
aI93819
aI93840
aI94478
aI94864
aI94867
aI95207
aI95633
aI95796
aI96448
aI96691
aI96815
aI96917
aI97172
aI97188
aI97643
aI97701
aI97785
aI97988
aI98175
aI99007
aI99122
aI99130
aI99191
aI99437
aI99721
aI100163
aI100306
aI100397
aI100810
aI100906
aI101074
aI101739
aI102025
aI102066
aI102070
aI102802
aI102984
aI103075
aI103219
aI103249
aI103483
aI103688
aI104457
aI104908
aI105325
aI105731
aI105801
aI106648
aI107436
aI107771
aI107997
aI109848
aI110286
aI110591
aI110746
aI110773
aI111551
aI111663
aI112515
aI112727
aI112818
aI113159
aI113252
aI113313
aI113565
aI113780
aI114044
aI114670
aI114707
aI114713
aI115111
aI115122
aI116668
aI116738
aI118270
aI118880
aI120827
aI121231
aI121253
aI121469
aI122433
aI122884
aI125221
aI128542
aI128838
aI129333
aI130050
aI130052
aI130686
aI130840
aI132153
aI133377
aI133782
aI133832
aI135534
aI136305
aI136602
aI136834
aI136958
aI138186
aI138610
aI139157
aI139511
aI139655
aI139994
aI140016
aI140133
aI140247
aI140267
aI140523
aI140852
aI141004
aI141408
aI141718
aI141799
aI141928
aI142074
aI142196
aI142366
aI142444
aI142598
aI143472
aI144522
aI144620
aI144734
aI144976
aI145080
aI148671
aI148978
aI148982
aI149011
aI149144
aI149146
aI149350
aI149830
aI150254
aI151559
aI151745
aI152173
aI152372
aI155064
aI158956
aI159403
aI159510
aI159858
aI160080
aI160565
aI160571
aI160872
aI160978
aI161830
aI161918
aI163937
aI163981
aI164367
aI165343
aI166534
aI166558
aI167538
aI168250
aI169670
aI169984
aI170289
aI170827
aI170945
aI173307
aI174053
aI174479
aI175197
aI175199
aI175303
aI175485
aI175705
aI176419
aI176579
aI179491
aI179749
aI180263
aI183295
aI183611
aI184253
aI185029
asVFilm-Noir
p14
(lp15
I164
aI320
aI347
aI913
aI922
aI929
aI930
aI942
aI999
aI1068
aI1179
aI1212
aI1245
aI1248
aI1252
aI1260
aI1273
aI1284
aI1464
aI1601
aI1617
aI1748
aI2008
aI2066
aI2182
aI2186
aI2206
aI2511
aI2612
aI2726
aI2727
aI2940
aI3334
aI3364
aI3435
aI3683
aI3706
aI3728
aI3965
aI3966
aI4037
aI4298
aI4426
aI4432
aI4496
aI4848
aI5434
aI6064
aI6273
aI6515
aI6603
aI7013
aI7216
aI7217
aI7223
aI7335
aI7728
aI7772
aI7924
aI7926
aI7943
aI8044
aI8236
aI8410
aI8465
aI8491
aI8600
aI8765
aI25825
aI25865
aI25927
aI25940
aI26701
aI26875
aI31545
aI32371
aI32587
aI44761
aI44849
aI47566
aI48872
aI69516
aI81132
aI88129
aI89753
aI91483
aI130482
asVCrime
p16
(lp17
I6
aI16
aI20
aI21
aI22
aI23
aI30
aI36
aI42
aI50
aI63
aI78
aI81
aI97
aI101
aI111
aI112
aI117
aI145
aI149
aI153
aI159
aI164
aI165
aI166
aI170
aI173
aI185
aI198
aI212
aI247
aI259
aI283
aI284
aI288
aI290
aI293
aI296
aI318
aI330
aI349
aI353
aI367
aI384
aI390
aI391
aI409
aI420
aI431
aI456
aI459
aI464
aI478
aI479
aI482
aI493
aI507
aI519
aI521
aI532
aI544
aI555
aI579
aI592
aI593
aI600
aI608
aI628
aI647
aI694
aI707
aI731
aI762
aI778
aI806
aI832
aI858
aI861
aI866
aI867
aI869
aI875
aI876
aI886
aI910
aI911
aI933
aI942
aI950
aI970
aI996
aI998
aI999
aI1034
aI1036
aI1053
aI1068
aI1079
aI1084
aI1086
aI1089
aI1092
aI1114
aI1125
aI1148
aI1179
aI1190
aI1206
aI1213
aI1218
aI1219
aI1221
aI1227
aI1234
aI1245
aI1248
aI1249
aI1252
aI1260
aI1267
aI1271
aI1284
aI1344
aI1351
aI1352
aI1377
aI1396
aI1405
aI1406
aI1411
aI1415
aI1422
aI1432
aI1447
aI1464
aI1466
aI1473
aI1500
aI1573
aI1589
aI1598
aI1601
aI1617
aI1620
aI1627
aI1647
aI1661
aI1662
aI1671
aI1675
aI1686
aI1689
aI1711
aI1729
aI1732
aI1752
aI1754
aI1769
aI1770
aI1783
aI1785
aI1791
aI1792
aI1799
aI1804
aI1805
aI1809
aI1834
aI1866
aI1873
aI1909
aI1910
aI1912
aI1918
aI1945
aI1953
aI1963
aI2000
aI2001
aI2002
aI2008
aI2023
aI2027
aI2048
aI2058
aI2074
aI2090
aI2110
aI2112
aI2126
aI2130
aI2159
aI2166
aI2176
aI2186
aI2194
aI2203
aI2227
aI2260
aI2264
aI2268
aI2273
aI2278
aI2280
aI2281
aI2289
aI2307
aI2329
aI2332
aI2371
aI2378
aI2379
aI2380
aI2381
aI2382
aI2383
aI2387
aI2389
aI2391
aI2413
aI2425
aI2458
aI2467
aI2502
aI2511
aI2540
aI2542
aI2561
aI2568
aI2579
aI2580
aI2586
aI2587
aI2605
aI2616
aI2625
aI2688
aI2692
aI2726
aI2727
aI2731
aI2741
aI2764
aI2769
aI2803
aI2881
aI2912
aI2917
aI2922
aI2931
aI2952
aI2956
aI2959
aI2973
aI2985
aI2986
aI2987
aI3019
aI3056
aI3102
aI3104
aI3130
aI3147
aI3169
aI3197
aI3198
aI3247
aI3256
aI3262
aI3265
aI3266
aI3267
aI3272
aI3275
aI3298
aI3301
aI3323
aI3328
aI3334
aI3362
aI3364
aI3384
aI3390
aI3418
aI3430
aI3435
aI3442
aI3452
aI3529
aI3535
aI3551
aI3598
aI3618
aI3632
aI3667
aI3682
aI3683
aI3701
aI3710
aI3715
aI3716
aI3717
aI3728
aI3729
aI3735
aI3741
aI3744
aI3761
aI3763
aI3764
aI3765
aI3783
aI3868
aI3893
aI3895
aI3896
aI3899
aI3906
aI3947
aI3966
aI3973
aI4011
aI4025
aI4027
aI4034
aI4037
aI4043
aI4052
aI4056
aI4064
aI4065
aI4084
aI4085
aI4086
aI4139
aI4203
aI4210
aI4212
aI4218
aI4228
aI4238
aI4239
aI4242
aI4243
aI4262
aI4291
aI4298
aI4326
aI4333
aI4344
aI4351
aI4354
aI4369
aI4371
aI4378
aI4383
aI4390
aI4395
aI4406
aI4410
aI4444
aI4450
aI4466
aI4488
aI4498
aI4506
aI4572
aI4602
aI4608
aI4610
aI4611
aI4613
aI4629
aI4640
aI4645
aI4661
aI4662
aI4673
aI4677
aI4690
aI4695
aI4719
aI4766
aI4774
aI4776
aI4794
aI4799
aI4830
aI4844
aI4845
aI4848
aI4855
aI4863
aI4865
aI4879
aI4881
aI4889
aI4898
aI4901
aI4914
aI4919
aI4945
aI4946
aI4954
aI4957
aI4963
aI4969
aI4998
aI5021
aI5027
aI5049
aI5088
aI5095
aI5108
aI5110
aI5113
aI5170
aI5178
aI5265
aI5285
aI5291
aI5294
aI5312
aI5319
aI5329
aI5333
aI5334
aI5384
aI5388
aI5414
aI5423
aI5424
aI5442
aI5445
aI5464
aI5465
aI5506
aI5507
aI5521
aI5553
aI5556
aI5563
aI5569
aI5573
aI5574
aI5575
aI5590
aI5602
aI5603
aI5613
aI5628
aI5630
aI5636
aI5657
aI5665
aI5678
aI5680
aI5689
aI5767
aI5803
aI5809
aI5867
aI5880
aI5888
aI5893
aI5900
aI5901
aI5912
aI5938
aI5954
aI5956
aI5959
aI5968
aI5989
aI5991
aI6003
aI6009
aI6016
aI6021
aI6023
aI6035
aI6051
aI6057
aI6067
aI6086
aI6143
aI6157
aI6185
aI6187
aI6196
aI6214
aI6223
aI6279
aI6280
aI6286
aI6288
aI6291
aI6298
aI6300
aI6308
aI6314
aI6322
aI6323
aI6330
aI6335
aI6337
aI6378
aI6383
aI6387
aI6424
aI6484
aI6503
aI6515
aI6548
aI6552
aI6567
aI6572
aI6582
aI6584
aI6587
aI6603
aI6614
aI6629
aI6662
aI6663
aI6686
aI6705
aI6708
aI6709
aI6720
aI6724
aI6763
aI6796
aI6797
aI6798
aI6800
aI6804
aI6852
aI6860
aI6862
aI6868
aI6869
aI6870
aI6874
aI6884
aI6885
aI6893
aI6920
aI6932
aI6953
aI6954
aI6957
aI6966
aI6974
aI6987
aI6989
aI6990
aI6997
aI7004
aI7007
aI7018
aI7028
aI7031
aI7040
aI7041
aI7044
aI7047
aI7048
aI7056
aI7073
aI7076
aI7102
aI7108
aI7160
aI7175
aI7216
aI7217
aI7235
aI7257
aI7258
aI7262
aI7305
aI7306
aI7325
aI7326
aI7333
aI7344
aI7362
aI7364
aI7367
aI7368
aI7377
aI7381
aI7439
aI7445
aI7459
aI7482
aI7562
aI7587
aI7728
aI7748
aI7802
aI7820
aI7831
aI7832
aI7833
aI7834
aI7835
aI7895
aI7920
aI7926
aI7943
aI7981
aI8016
aI8033
aI8035
aI8042
aI8044
aI8136
aI8142
aI8158
aI8207
aI8238
aI8253
aI8290
aI8341
aI8369
aI8370
aI8387
aI8410
aI8456
aI8465
aI8491
aI8495
aI8507
aI8531
aI8593
aI8596
aI8600
aI8645
aI8656
aI8665
aI8666
aI8670
aI8765
aI8771
aI8773
aI8778
aI8798
aI8831
aI8860
aI8879
aI8918
aI8955
aI8968
aI8984
aI25773
aI25788
aI25855
aI25963
aI26002
aI26003
aI26052
aI26151
aI26159
aI26169
aI26172
aI26184
aI26231
aI26283
aI26322
aI26344
aI26375
aI26464
aI26504
aI26547
aI26585
aI26587
aI26612
aI26700
aI26701
aI26704
aI26736
aI26761
aI26840
aI26854
aI26875
aI26947
aI27008
aI27022
aI27134
aI27311
aI27328
aI27397
aI27473
aI27480
aI27549
aI27592
aI27674
aI27689
aI27716
aI27790
aI27802
aI27831
aI30745
aI30846
aI31086
aI31101
aI31123
aI31221
aI31309
aI31364
aI31367
aI31420
aI31545
aI31590
aI31921
aI31952
aI32019
aI32029
aI32179
aI32243
aI32296
aI32371
aI32392
aI32460
aI32469
aI32587
aI32632
aI33132
aI33148
aI33158
aI33166
aI33437
aI33794
aI33893
aI33903
aI34271
aI34323
aI34450
aI34534
aI34811
aI36519
aI36529
aI36850
aI36931
aI37382
aI37477
aI37720
aI37731
aI37733
aI37741
aI37853
aI38061
aI38095
aI39292
aI39381
aI40148
aI40412
aI40723
aI40959
aI41014
aI41285
aI41527
aI41617
aI41863
aI41997
aI42011
aI42632
aI42718
aI43419
aI43549
aI43558
aI43836
aI43871
aI43912
aI43921
aI43936
aI44197
aI44199
aI44204
aI44301
aI44597
aI44665
aI44759
aI44761
aI44937
aI45062
aI45183
aI45210
aI46335
aI46367
aI47044
aI47254
aI47538
aI47566
aI47646
aI47950
aI48142
aI48416
aI48516
aI48877
aI48883
aI48997
aI49314
aI49389
aI49530
aI50442
aI50794
aI51255
aI51357
aI51540
aI52241
aI52281
aI52375
aI52604
aI52712
aI52831
aI53022
aI53129
aI53322
aI53435
aI53447
aI53466
aI53519
aI53972
aI54274
aI54286
aI54372
aI54648
aI54997
aI54999
aI55036
aI55080
aI55118
aI55167
aI55272
aI55290
aI55294
aI55363
aI55391
aI55577
aI55721
aI55765
aI55805
aI55820
aI56156
aI57147
aI57522
aI57526
aI57669
aI57772
aI57843
aI58078
aI58295
aI58303
aI58559
aI58803
aI58826
aI59016
aI59369
aI59604
aI59814
aI59995
aI60074
aI60647
aI60753
aI60832
aI60979
aI61024
aI61323
aI61352
aI61465
aI61697
aI62081
aI62250
aI62394
aI62792
aI62849
aI63062
aI63082
aI63436
aI63768
aI64030
aI64231
aI64614
aI65350
aI65596
aI65802
aI66943
aI67193
aI67255
aI67508
aI67923
aI68159
aI68205
aI68347
aI68480
aI68554
aI68848
aI69122
aI69131
aI69140
aI69306
aI69394
aI69516
aI69640
aI70015
aI70206
aI70301
aI71033
aI71211
aI72129
aI72167
aI72226
aI72405
aI72489
aI72731
aI72919
aI73017
aI73323
aI73344
aI73386
aI73431
aI73569
aI73741
aI73808
aI73876
aI74510
aI74532
aI74727
aI74851
aI74948
aI75813
aI76091
aI76143
aI76173
aI76751
aI77846
aI79091
aI79132
aI79299
aI79333
aI79501
aI79536
aI79677
aI80124
aI80219
aI80489
aI80727
aI81132
aI81520
aI81788
aI82053
aI82093
aI82667
aI82744
aI83349
aI83796
aI84189
aI84392
aI84844
aI85342
aI85354
aI85796
aI86028
aI86628
aI86644
aI86892
aI87785
aI87869
aI88069
aI88129
aI88235
aI88515
aI88593
aI88812
aI89343
aI90405
aI90528
aI90600
aI90603
aI90717
aI90738
aI90945
aI91483
aI91529
aI91542
aI91842
aI91978
aI92264
aI92507
aI92637
aI93022
aI93193
aI93320
aI93510
aI93598
aI93838
aI94405
aI94896
aI94985
aI95508
aI95583
aI95761
aI96114
aI96432
aI96471
aI96610
aI96811
aI96861
aI96964
aI97285
aI97306
aI97742
aI97860
aI97950
aI98061
aI98296
aI98623
aI99005
aI99112
aI99728
aI99750
aI99910
aI99992
aI100326
aI100383
aI100390
aI100498
aI101525
aI101741
aI102033
aI102194
aI102278
aI102716
aI102749
aI102760
aI102903
aI103075
aI103137
aI103366
aI103372
aI103449
aI103810
aI103883
aI104141
aI104211
aI104241
aI104760
aI104837
aI104925
aI105351
aI105585
aI105593
aI105720
aI105755
aI106648
aI106782
aI106785
aI106916
aI107338
aI107447
aI107462
aI107951
aI108945
aI108949
aI109241
aI109295
aI109569
aI109723
aI109850
aI109864
aI110297
aI110501
aI110826
aI112138
aI112171
aI112727
aI113278
aI113416
aI113453
aI113573
aI113849
aI114060
aI114246
aI114818
aI114925
aI115151
aI115569
aI115680
aI116207
aI116419
aI116799
aI117572
aI117590
aI117630
aI118082
aI118326
aI118354
aI118572
aI119145
aI119218
aI120635
aI120637
aI120783
aI120827
aI124859
aI127052
aI128488
aI128620
aI129354
aI129937
aI130083
aI130482
aI130634
aI131013
aI131104
aI131480
aI132157
aI132454
aI132618
aI133195
aI133217
aI133716
aI134368
aI134515
aI135456
aI135536
aI136018
aI136020
aI136024
aI136664
aI136850
aI137345
aI138186
aI138632
aI139415
aI139644
aI139717
aI140525
aI140725
aI140850
aI141688
aI142074
aI142961
aI143001
aI143559
aI144352
aI144606
aI145745
aI146028
aI147286
aI147300
aI147326
aI147328
aI147330
aI148671
aI150401
aI150548
aI151781
aI152079
aI156706
aI157110
aI157407
aI157432
aI158238
aI160527
aI161127
aI161354
aI161582
aI162478
aI162606
aI162828
aI165347
aI168248
aI168266
aI169992
aI170875
aI170993
aI171763
aI173619
aI174727
aI175569
aI175585
aI175693
aI176751
aI177593
aI177763
aI179133
aI182823
aI183011
aI183611
aI184257
aI184931
aI185135
aI188675
aI189381
aI189713
asVRomance
p18
(lp19
I3
aI4
aI7
aI11
aI15
aI17
aI25
aI28
aI39
aI46
aI48
aI49
aI52
aI58
aI64
aI68
aI74
aI81
aI83
aI85
aI93
aI94
aI101
aI105
aI118
aI122
aI123
aI129
aI140
aI151
aI163
aI168
aI179
aI180
aI186
aI191
aI195
aI199
aI202
aI207
aI215
aI222
aI224
aI232
aI236
aI237
aI239
aI249
aI252
aI258
aI265
aI266
aI270
aI276
aI281
aI287
aI289
aI294
aI295
aI301
aI302
aI339
aI347
aI351
aI356
aI357
aI359
aI361
aI362
aI372
aI377
aI378
aI380
aI381
aI382
aI389
aI417
aI425
aI427
aI440
aI444
aI446
aI451
aI453
aI459
aI461
aI468
aI469
aI488
aI496
aI497
aI499
aI502
aI506
aI509
aI513
aI515
aI534
aI539
aI542
aI543
aI550
aI552
aI563
aI587
aI595
aI597
aI605
aI613
aI618
aI631
aI638
aI680
aI691
aI697
aI708
aI715
aI736
aI764
aI779
aI783
aI788
aI802
aI803
aI804
aI838
aI852
aI866
aI889
aI892
aI897
aI898
aI899
aI900
aI902
aI903
aI905
aI907
aI908
aI909
aI911
aI912
aI914
aI915
aI916
aI920
aI922
aI928
aI930
aI931
aI932
aI933
aI936
aI937
aI940
aI943
aI945
aI947
aI948
aI951
aI953
aI955
aI956
aI969
aI970
aI976
aI987
aI1011
aI1013
aI1022
aI1035
aI1043
aI1046
aI1053
aI1057
aI1059
aI1064
aI1066
aI1081
aI1088
aI1094
aI1100
aI1101
aI1137
aI1175
aI1176
aI1177
aI1183
aI1188
aI1190
aI1197
aI1211
aI1216
aI1224
aI1226
aI1230
aI1235
aI1236
aI1244
aI1247
aI1249
aI1257
aI1264
aI1265
aI1277
aI1286
aI1290
aI1296
aI1305
aI1307
aI1339
aI1353
aI1357
aI1380
aI1381
aI1393
aI1398
aI1408
aI1409
aI1411
aI1415
aI1441
aI1453
aI1457
aI1458
aI1464
aI1468
aI1475
aI1477
aI1479
aI1484
aI1493
aI1496
aI1498
aI1500
aI1502
aI1514
aI1537
aI1541
aI1542
aI1549
aI1550
aI1554
aI1556
aI1564
aI1569
aI1571
aI1574
aI1593
aI1597
aI1600
aI1605
aI1611
aI1629
aI1639
aI1643
aI1646
aI1656
aI1658
aI1674
aI1678
aI1680
aI1683
aI1684
aI1685
aI1704
aI1721
aI1727
aI1733
aI1735
aI1755
aI1757
aI1767
aI1770
aI1777
aI1783
aI1784
aI1821
aI1829
aI1835
aI1844
aI1873
aI1883
aI1885
aI1888
aI1894
aI1895
aI1897
aI1902
aI1906
aI1907
aI1912
aI1916
aI1917
aI1923
aI1929
aI1934
aI1944
aI1946
aI1947
aI1948
aI1959
aI2006
aI2020
aI2025
aI2059
aI2065
aI2067
aI2070
aI2074
aI2080
aI2081
aI2092
aI2100
aI2108
aI2125
aI2130
aI2143
aI2144
aI2145
aI2146
aI2154
aI2156
aI2166
aI2171
aI2175
aI2181
aI2187
aI2205
aI2243
aI2244
aI2245
aI2248
aI2257
aI2259
aI2262
aI2266
aI2269
aI2291
aI2292
aI2297
aI2316
aI2324
aI2331
aI2339
aI2340
aI2367
aI2369
aI2385
aI2388
aI2393
aI2396
aI2405
aI2406
aI2415
aI2424
aI2443
aI2468
aI2481
aI2482
aI2485
aI2491
aI2492
aI2496
aI2497
aI2506
aI2544
aI2558
aI2565
aI2570
aI2572
aI2581
aI2585
aI2589
aI2594
aI2597
aI2607
aI2620
aI2629
aI2633
aI2671
aI2681
aI2690
aI2697
aI2706
aI2708
aI2724
aI2728
aI2729
aI2730
aI2732
aI2733
aI2764
aI2774
aI2793
aI2794
aI2797
aI2801
aI2802
aI2803
aI2805
aI2819
aI2822
aI2837
aI2843
aI2847
aI2858
aI2874
aI2875
aI2884
aI2885
aI2888
aI2894
aI2906
aI2919
aI2927
aI2929
aI2935
aI2936
aI2940
aI2941
aI2942
aI2943
aI2950
aI2962
aI2969
aI2978
aI3003
aI3004
aI3044
aI3046
aI3072
aI3073
aI3079
aI3081
aI3087
aI3094
aI3097
aI3099
aI3102
aI3103
aI3106
aI3108
aI3117
aI3155
aI3156
aI3161
aI3194
aI3197
aI3206
aI3210
aI3225
aI3244
aI3257
aI3259
aI3261
aI3269
aI3270
aI3284
aI3307
aI3329
aI3330
aI3353
aI3357
aI3358
aI3360
aI3361
aI3368
aI3390
aI3393
aI3394
aI3402
aI3414
aI3422
aI3426
aI3436
aI3452
aI3453
aI3454
aI3462
aI3475
aI3479
aI3480
aI3481
aI3492
aI3501
aI3512
aI3515
aI3516
aI3524
aI3528
aI3531
aI3536
aI3549
aI3554
aI3556
aI3559
aI3567
aI3568
aI3577
aI3584
aI3586
aI3598
aI3606
aI3614
aI3616
aI3628
aI3629
aI3633
aI3668
aI3675
aI3684
aI3685
aI3699
aI3705
aI3707
aI3719
aI3739
aI3743
aI3765
aI3774
aI3792
aI3822
aI3824
aI3825
aI3834
aI3855
aI3868
aI3888
aI3893
aI3909
aI3920
aI3953
aI3978
aI3983
aI3987
aI3992
aI3993
aI3996
aI4014
aI4018
aI4023
aI4024
aI4031
aI4035
aI4041
aI4054
aI4061
aI4062
aI4063
aI4067
aI4069
aI4082
aI4086
aI4091
aI4092
aI4129
aI4131
aI4132
aI4141
aI4144
aI4146
aI4147
aI4149
aI4153
aI4155
aI4157
aI4160
aI4168
aI4184
aI4191
aI4194
aI4205
aI4228
aI4229
aI4231
aI4246
aI4247
aI4259
aI4280
aI4285
aI4296
aI4299
aI4305
aI4306
aI4307
aI4308
aI4310
aI4317
aI4337
aI4342
aI4356
aI4357
aI4361
aI4372
aI4374
aI4380
aI4392
aI4419
aI4428
aI4438
aI4447
aI4451
aI4464
aI4471
aI4487
aI4489
aI4495
aI4505
aI4522
aI4526
aI4527
aI4535
aI4564
aI4578
aI4584
aI4602
aI4603
aI4621
aI4626
aI4639
aI4644
aI4672
aI4699
aI4700
aI4719
aI4727
aI4736
aI4738
aI4740
aI4741
aI4743
aI4756
aI4766
aI4775
aI4782
aI4788
aI4795
aI4796
aI4798
aI4800
aI4802
aI4823
aI4828
aI4836
aI4840
aI4844
aI4877
aI4890
aI4912
aI4914
aI4919
aI4920
aI4921
aI4956
aI4964
aI4973
aI4975
aI4991
aI4992
aI4994
aI4995
aI5011
aI5012
aI5015
aI5034
aI5051
aI5066
aI5071
aI5077
aI5081
aI5106
aI5127
aI5135
aI5151
aI5168
aI5177
aI5222
aI5225
aI5226
aI5241
aI5268
aI5278
aI5279
aI5284
aI5296
aI5298
aI5299
aI5303
aI5309
aI5316
aI5324
aI5328
aI5346
aI5365
aI5373
aI5377
aI5380
aI5404
aI5424
aI5449
aI5450
aI5451
aI5452
aI5454
aI5466
aI5470
aI5471
aI5477
aI5485
aI5499
aI5503
aI5524
aI5525
aI5527
aI5529
aI5532
aI5540
aI5541
aI5553
aI5614
aI5617
aI5620
aI5625
aI5646
aI5664
aI5666
aI5673
aI5675
aI5693
aI5707
aI5723
aI5741
aI5752
aI5791
aI5799
aI5804
aI5812
aI5818
aI5826
aI5829
aI5836
aI5841
aI5856
aI5878
aI5881
aI5889
aI5902
aI5927
aI5929
aI5941
aI5943
aI5957
aI5969
aI5970
aI5975
aI5984
aI5992
aI5994
aI6006
aI6012
aI6023
aI6027
aI6031
aI6035
aI6036
aI6039
aI6060
aI6100
aI6111
aI6155
aI6159
aI6163
aI6178
aI6183
aI6192
aI6201
aI6202
aI6218
aI6228
aI6238
aI6241
aI6245
aI6252
aI6254
aI6266
aI6268
aI6271
aI6273
aI6308
aI6332
aI6342
aI6344
aI6357
aI6358
aI6367
aI6370
aI6373
aI6407
aI6424
aI6442
aI6466
aI6483
aI6493
aI6509
aI6510
aI6523
aI6527
aI6545
aI6549
aI6551
aI6564
aI6587
aI6588
aI6596
aI6636
aI6638
aI6644
aI6658
aI6660
aI6665
aI6668
aI6684
aI6687
aI6689
aI6696
aI6710
aI6711
aI6713
aI6722
aI6732
aI6734
aI6746
aI6750
aI6765
aI6770
aI6776
aI6785
aI6788
aI6789
aI6837
aI6851
aI6873
aI6883
aI6885
aI6886
aI6912
aI6927
aI6939
aI6942
aI6953
aI6954
aI6970
aI6973
aI6983
aI6986
aI6993
aI6999
aI7008
aI7010
aI7015
aI7020
aI7023
aI7032
aI7033
aI7034
aI7038
aI7044
aI7049
aI7050
aI7053
aI7055
aI7057
aI7061
aI7067
aI7072
aI7080
aI7082
aI7084
aI7085
aI7088
aI7092
aI7101
aI7109
aI7121
aI7132
aI7137
aI7139
aI7142
aI7147
aI7149
aI7151
aI7154
aI7162
aI7169
aI7173
aI7179
aI7184
aI7211
aI7212
aI7215
aI7217
aI7255
aI7260
aI7264
aI7293
aI7311
aI7320
aI7346
aI7352
aI7354
aI7357
aI7361
aI7366
aI7375
aI7380
aI7444
aI7450
aI7457
aI7486
aI7541
aI7579
aI7584
aI7614
aI7669
aI7701
aI7705
aI7707
aI7713
aI7714
aI7720
aI7822
aI7826
aI7831
aI7834
aI7835
aI8008
aI8024
aI8033
aI8093
aI8125
aI8131
aI8167
aI8195
aI8197
aI8235
aI8254
aI8270
aI8302
aI8327
aI8336
aI8360
aI8362
aI8383
aI8385
aI8402
aI8424
aI8446
aI8450
aI8459
aI8465
aI8477
aI8481
aI8502
aI8529
aI8530
aI8533
aI8588
aI8614
aI8623
aI8638
aI8643
aI8667
aI8712
aI8738
aI8784
aI8799
aI8800
aI8808
aI8809
aI8833
aI8836
aI8838
aI8866
aI8869
aI8911
aI8916
aI8919
aI8921
aI8948
aI8949
aI8969
aI8981
aI8983
aI9010
aI25750
aI25757
aI25769
aI25795
aI25805
aI25826
aI25827
aI25833
aI25850
aI25856
aI25870
aI25886
aI25905
aI25906
aI25937
aI25946
aI25959
aI25962
aI26038
aI26084
aI26085
aI26147
aI26225
aI26236
aI26237
aI26265
aI26308
aI26317
aI26347
aI26391
aI26394
aI26429
aI26587
aI26599
aI26606
aI26680
aI26713
aI26741
aI26745
aI26761
aI26765
aI26776
aI26791
aI26796
aI26871
aI26903
aI26928
aI26958
aI26999
aI27020
aI27036
aI27178
aI27246
aI27266
aI27317
aI27416
aI27420
aI27523
aI27539
aI27627
aI27644
aI27708
aI27716
aI27721
aI27722
aI27741
aI27744
aI27808
aI27826
aI30803
aI30816
aI30898
aI31038
aI31083
aI31367
aI31433
aI31617
aI31658
aI31664
aI31685
aI31694
aI31903
aI31925
aI32009
aI32298
aI32598
aI32620
aI32799
aI32862
aI32917
aI33145
aI33162
aI33188
aI33201
aI33237
aI33310
aI33499
aI33649
aI33660
aI33679
aI33781
aI33815
aI33830
aI33836
aI33903
aI34162
aI34336
aI35836
aI36477
aI36525
aI37444
aI37495
aI37729
aI37844
aI38159
aI38164
aI39183
aI39231
aI39414
aI39449
aI40581
aI40629
aI40819
aI40826
aI40962
aI41285
aI41571
aI41573
aI41617
aI41769
aI42007
aI42015
aI42418
aI42422
aI42728
aI43333
aI43684
aI43744
aI43917
aI43919
aI43930
aI44004
aI44189
aI44193
aI44555
aI44864
aI44929
aI45382
aI45501
aI45668
aI45672
aI45732
aI45880
aI45969
aI46062
aI46105
aI46976
aI47122
aI47202
aI47382
aI47404
aI47610
aI47725
aI47793
aI48001
aI48032
aI48043
aI48082
aI48342
aI48638
aI48696
aI48744
aI49130
aI49284
aI49286
aI49666
aI49772
aI50189
aI50274
aI50685
aI50792
aI50796
aI50802
aI50806
aI50912
aI50954
aI51082
aI51084
aI51314
aI51471
aI51694
aI51705
aI51834
aI51884
aI51903
aI52245
aI52668
aI52867
aI52973
aI53022
aI53123
aI53140
aI53161
aI53318
aI53355
aI53974
aI54004
aI54121
aI54190
aI54259
aI54276
aI54780
aI54796
aI55052
aI55112
aI55190
aI55245
aI55253
aI55261
aI55267
aI55451
aI55844
aI56060
aI56152
aI56367
aI56389
aI56715
aI56837
aI56908
aI56941
aI56949
aI57504
aI57951
aI58047
aI58078
aI58107
aI58154
aI58162
aI58293
aI58347
aI58783
aI58803
aI58806
aI58839
aI58998
aI59018
aI59220
aI59333
aI59421
aI59440
aI59549
aI59725
aI59985
aI60069
aI60161
aI60293
aI60397
aI60516
aI60737
aI60894
aI60950
aI61071
aI61123
aI61240
aI61729
aI62155
aI62293
aI62344
aI62434
aI62439
aI62718
aI63033
aI63082
aI63239
aI63393
aI63992
aI64114
aI64622
aI64957
aI64993
aI65130
aI65193
aI65585
aI65740
aI66203
aI66665
aI67193
aI67618
aI67788
aI68269
aI68835
aI68848
aI68886
aI69224
aI69406
aI69495
aI69604
aI69606
aI69644
aI69757
aI69844
aI70183
aI70293
aI70334
aI70521
aI70599
aI70637
aI70663
aI70687
aI71033
aI71327
aI71579
aI71668
aI71823
aI71902
aI71970
aI71999
aI72011
aI72142
aI72407
aI72479
aI72737
aI72919
aI72921
aI73015
aI73023
aI73266
aI73319
aI73515
aI73881
aI74154
aI74275
aI74282
aI74450
aI74508
aI74624
aI74688
aI74754
aI75341
aI75805
aI76293
aI76301
aI77414
aI77421
aI77866
aI77881
aI78034
aI78039
aI78105
aI78174
aI78264
aI78316
aI78703
aI78772
aI79185
aI79333
aI79357
aI79590
aI79702
aI80166
aI80241
aI80549
aI80551
aI80584
aI80586
aI80860
aI80864
aI80969
aI81383
aI81456
aI81681
aI81784
aI81788
aI81847
aI81949
aI82093
aI82152
aI82167
aI82499
aI83086
aI83969
aI84246
aI84374
aI84637
aI84716
aI84847
aI84954
aI85367
aI85438
aI85565
aI85885
aI86548
aI86817
aI86882
aI87234
aI87522
aI88108
aI88163
aI88179
aI88405
aI89039
aI89281
aI89678
aI89862
aI89904
aI90576
aI91079
aI91104
aI91261
aI91266
aI91337
aI91628
aI91666
aI92348
aI92439
aI92509
aI92665
aI92694
aI93326
aI93723
aI93740
aI93988
aI94150
aI94266
aI94503
aI94931
aI94959
aI95199
aI95309
aI95449
aI95843
aI95873
aI96530
aI96567
aI96726
aI96821
aI96935
aI96945
aI96975
aI97024
aI98175
aI98203
aI98230
aI98491
aI98604
aI98908
aI99007
aI99087
aI99149
aI99532
aI99853
aI99917
aI100277
aI100302
aI100487
aI100527
aI100714
aI100882
aI101415
aI101577
aI101612
aI101765
aI103027
aI103221
aI103245
aI103502
aI103539
aI103606
aI103801
aI104283
aI104374
aI104863
aI104906
aI105211
aI105213
aI105355
aI106330
aI106542
aI106594
aI106696
aI106920
aI107412
aI107771
aI108078
aI108190
aI108540
aI109372
aI109383
aI109483
aI109633
aI109853
aI110281
aI110771
aI111622
aI111680
aI111921
aI112303
aI112450
aI112749
aI113159
aI113225
aI113829
aI114265
aI114762
aI115502
aI115664
aI115667
aI115828
aI116044
aI116413
aI116724
aI116799
aI116849
aI117176
aI117572
aI117630
aI118166
aI118814
aI118880
aI120138
aI121338
aI121342
aI122932
aI123545
aI124851
aI125914
aI125916
aI127052
aI127108
aI128197
aI128512
aI128594
aI128620
aI128832
aI129354
aI130073
aI130840
aI130978
aI132422
aI132424
aI132488
aI132660
aI133645
aI133712
aI133771
aI134004
aI134021
aI134041
aI134393
aI134528
aI136838
aI136840
aI136859
aI138702
aI139747
aI139915
aI140162
aI140301
aI140627
aI141818
aI143031
aI144262
aI144606
aI146024
aI146244
aI147002
aI147196
aI148956
aI149380
aI149508
aI149566
aI149830
aI152284
aI155509
aI157130
aI158783
aI158882
aI159193
aI159415
aI162590
aI163134
aI164647
aI164753
aI164909
aI166291
aI166635
aI168326
aI168366
aI168492
aI168712
aI170355
aI172229
aI172233
aI176621
aI177939
aI178615
aI179511
aI181315
aI184349
aI188751
aI190207
asVFantasy
p20
(lp21
I1
aI2
aI29
aI44
aI60
aI126
aI188
aI189
aI201
aI243
aI258
aI265
aI314
aI317
aI353
aI355
aI367
aI393
aI405
aI410
aI485
aI506
aI533
aI546
aI551
aI558
aI587
aI594
aI595
aI596
aI606
aI631
aI653
aI661
aI673
aI718
aI724
aI788
aI810
aI829
aI837
aI885
aI919
aI943
aI953
aI1009
aI1011
aI1022
aI1025
aI1028
aI1032
aI1064
aI1073
aI1099
aI1126
aI1136
aI1151
aI1176
aI1197
aI1199
aI1211
aI1215
aI1241
aI1251
aI1261
aI1265
aI1275
aI1278
aI1282
aI1302
aI1339
aI1345
aI1346
aI1409
aI1458
aI1464
aI1562
aI1583
aI1587
aI1654
aI1681
aI1702
aI1754
aI1835
aI1848
aI1881
aI1920
aI1967
aI2005
aI2014
aI2015
aI2017
aI2033
aI2043
aI2044
aI2052
aI2054
aI2065
aI2068
aI2087
aI2092
aI2093
aI2097
aI2100
aI2103
aI2115
aI2116
aI2123
aI2124
aI2134
aI2138
aI2140
aI2143
aI2147
aI2148
aI2149
aI2161
aI2162
aI2174
aI2193
aI2253
aI2263
aI2291
aI2294
aI2297
aI2316
aI2321
aI2327
aI2366
aI2367
aI2373
aI2399
aI2400
aI2414
aI2429
aI2453
aI2617
aI2622
aI2624
aI2654
aI2674
aI2717
aI2723
aI2735
aI2797
aI2800
aI2826
aI2857
aI2872
aI2876
aI2931
aI2968
aI2971
aI2987
aI2997
aI3000
aI3052
aI3054
aI3081
aI3086
aI3087
aI3088
aI3108
aI3113
aI3114
aI3153
aI3157
aI3258
aI3355
aI3358
aI3393
aI3400
aI3438
aI3439
aI3440
aI3466
aI3479
aI3489
aI3516
aI3687
aI3740
aI3754
aI3771
aI3784
aI3807
aI3837
aI3877
aI3889
aI3920
aI3988
aI3997
aI4016
aI4105
aI4129
aI4130
aI4133
aI4153
aI4157
aI4158
aI4240
aI4275
aI4282
aI4294
aI4306
aI4366
aI4392
aI4404
aI4446
aI4462
aI4467
aI4519
aI4523
aI4564
aI4591
aI4605
aI4789
aI4873
aI4874
aI4886
aI4890
aI4896
aI4899
aI4902
aI4911
aI4915
aI4927
aI4980
aI4985
aI4993
aI5039
aI5040
aI5041
aI5065
aI5069
aI5102
aI5127
aI5128
aI5146
aI5214
aI5268
aI5313
aI5417
aI5419
aI5458
aI5463
aI5530
aI5538
aI5540
aI5618
aI5638
aI5667
aI5672
aI5700
aI5768
aI5797
aI5804
aI5816
aI5952
aI5971
aI5974
aI5990
aI5999
aI6093
aI6270
aI6316
aI6350
aI6373
aI6536
aI6539
aI6541
aI6547
aI6593
aI6624
aI6660
aI6666
aI6686
aI6754
aI6773
aI6774
aI6790
aI6849
aI6857
aI6902
aI6936
aI6946
aI6958
aI6966
aI6987
aI7012
aI7036
aI7045
aI7046
aI7057
aI7064
aI7067
aI7099
aI7123
aI7147
aI7153
aI7164
aI7228
aI7247
aI7302
aI7304
aI7373
aI7380
aI7444
aI7454
aI7561
aI7657
aI7708
aI7757
aI7841
aI7842
aI7951
aI8008
aI8015
aI8157
aI8169
aI8254
aI8368
aI8373
aI8426
aI8454
aI8482
aI8492
aI8580
aI8610
aI8620
aI8666
aI8713
aI8743
aI8782
aI8919
aI8965
aI8985
aI25750
aI25771
aI25870
aI26258
aI26340
aI26492
aI26510
aI26542
aI26590
aI26603
aI26606
aI26631
aI26662
aI26686
aI26693
aI26741
aI26764
aI26776
aI26849
aI26887
aI27036
aI27075
aI27105
aI27134
aI27155
aI27156
aI27186
aI27251
aI27266
aI27320
aI27328
aI27368
aI27537
aI27706
aI27731
aI27778
aI27790
aI27905
aI30793
aI30810
aI30883
aI31150
aI31184
aI31658
aI31696
aI31698
aI31804
aI32031
aI32456
aI32554
aI32898
aI32917
aI33294
aI33681
aI33801
aI33836
aI36289
aI36397
aI36401
aI36525
aI37495
aI37729
aI37830
aI37857
aI38294
aI39801
aI40815
aI40851
aI41566
aI41569
aI42556
aI42738
aI42761
aI43289
aI43560
aI43928
aI43932
aI44225
aI44238
aI44241
aI44243
aI44399
aI45074
aI45081
aI45668
aI45672
aI45722
aI45730
aI45732
aI46948
aI46967
aI46972
aI46976
aI47124
aI47261
aI47384
aI47404
aI47465
aI47610
aI47721
aI47725
aI47774
aI48043
aI48082
aI48394
aI49013
aI49647
aI49649
aI49666
aI50601
aI50796
aI51024
aI51077
aI51573
aI51662
aI51925
aI51939
aI52435
aI52462
aI52712
aI52950
aI53121
aI53125
aI53138
aI53140
aI53450
aI53453
aI53993
aI54001
aI54190
aI54259
aI54686
aI55167
aI55259
aI55995
aI56152
aI56171
aI56715
aI56915
aI57326
aI57640
aI58105
aI58347
aI58404
aI58972
aI59103
aI59387
aI59501
aI60074
aI60365
aI60522
aI60818
aI60937
aI61240
aI61401
aI61729
aI61818
aI62336
aI62586
aI62956
aI62970
aI63239
aI63312
aI63992
aI64167
aI64249
aI64957
aI65261
aI65359
aI65577
aI65588
aI65651
aI65682
aI65685
aI66097
aI66240
aI67799
aI68835
aI69134
aI69251
aI69304
aI69606
aI69805
aI69844
aI69951
aI70305
aI70521
aI70697
aI70946
aI71129
aI71160
aI71264
aI71468
aI71745
aI71999
aI72165
aI72294
aI72356
aI72407
aI72692
aI72731
aI72737
aI72921
aI72982
aI73804
aI73854
aI73929
aI74089
aI74095
aI74530
aI74553
aI74698
aI74789
aI76093
aI76175
aI77798
aI78105
aI78499
aI78637
aI78703
aI78772
aI78893
aI79008
aI79139
aI79357
aI79702
aI79868
aI79895
aI80083
aI80615
aI80748
aI80834
aI81512
aI81834
aI81847
aI82152
aI82169
aI82854
aI83132
aI83349
aI83374
aI83480
aI84637
aI84942
aI85397
aI85412
aI85510
aI85788
aI86332
aI86721
aI86864
aI86880
aI86882
aI87529
aI88125
aI89190
aI90647
aI90888
aI91104
aI91273
aI91355
aI91784
aI91974
aI92348
aI92637
aI92730
aI92938
aI93272
aI93766
aI94015
aI94160
aI94810
aI95149
aI95170
aI95207
aI95311
aI95441
aI95519
aI95558
aI95839
aI95843
aI95873
aI96430
aI96832
aI96935
aI97757
aI98203
aI98243
aI98361
aI98809
aI99437
aI99764
aI100163
aI100487
aI100882
aI101025
aI101112
aI101529
aI101962
aI102084
aI102590
aI102720
aI103042
aI103085
aI103655
aI103685
aI103755
aI103772
aI104074
aI104374
aI105246
aI105468
aI105801
aI106072
aI106489
aI106491
aI106696
aI107013
aI107723
aI107953
aI108689
aI108795
aI108932
aI109042
aI109187
aI109191
aI111732
aI111785
aI112512
aI114554
aI114627
aI114795
aI117444
aI117646
aI118696
aI118997
aI119155
aI119655
aI120130
aI120138
aI121007
aI121781
aI122884
aI122886
aI122890
aI122902
aI122924
aI122926
aI123553
aI125970
aI125974
aI126142
aI126482
aI126577
aI128842
aI129397
aI130050
aI130073
aI130087
aI130444
aI130450
aI130520
aI131610
aI134170
aI134252
aI134853
aI135143
aI135532
aI135534
aI136016
aI136864
aI137517
aI137857
aI137863
aI139130
aI139655
aI139855
aI140737
aI141818
aI143245
aI143355
aI143559
aI146688
aI147372
aI148675
aI148775
aI148978
aI150554
aI151479
aI151653
aI152063
aI153070
aI153386
aI153408
aI156607
aI157172
aI158813
aI158830
aI159403
aI159811
aI160573
aI161594
aI162578
aI162600
aI163056
aI163134
aI164226
aI164280
aI165639
aI166203
aI166461
aI166528
aI168026
aI168090
aI168218
aI168254
aI168366
aI170827
aI170837
aI172577
aI172793
aI173351
aI173873
aI174141
aI175197
aI175397
aI175435
aI177285
aI179511
aI179819
aI180031
aI182297
aI182823
aI184471
aI184641
aI184987
aI185033
aI185585
aI188189
aI188301
aI188833
aI193581
aI193583
asVMusical
p22
(lp23
I48
aI107
aI199
aI242
aI346
aI364
aI477
aI549
aI551
aI588
aI594
aI595
aI596
aI631
aI661
aI709
aI783
aI829
aI869
aI888
aI899
aI900
aI901
aI907
aI914
aI918
aI919
aI935
aI938
aI945
aI963
aI1022
aI1023
aI1024
aI1025
aI1028
aI1029
aI1030
aI1031
aI1032
aI1035
aI1057
aI1064
aI1066
aI1073
aI1081
aI1083
aI1088
aI1191
aI1220
aI1256
aI1282
aI1298
aI1380
aI1381
aI1416
aI1487
aI1489
aI1566
aI1688
aI1772
aI1881
aI1907
aI1926
aI1932
aI1937
aI1947
aI1951
aI1967
aI2017
aI2078
aI2081
aI2083
aI2084
aI2087
aI2088
aI2092
aI2096
aI2099
aI2102
aI2135
aI2142
aI2301
aI2303
aI2394
aI2565
aI2573
aI2657
aI2677
aI2700
aI2746
aI2857
aI2859
aI2863
aI2874
aI2877
aI2941
aI2946
aI2971
aI3034
aI3060
aI3061
aI3086
aI3142
aI3159
aI3163
aI3315
aI3396
aI3398
aI3425
aI3545
aI3549
aI3594
aI3599
aI3604
aI3606
aI3675
aI3679
aI3725
aI3910
aI3963
aI4039
aI4193
aI4290
aI4294
aI4308
aI4356
aI4394
aI4474
aI4587
aI4589
aI4624
aI4642
aI4690
aI4708
aI4709
aI4757
aI4775
aI4777
aI4789
aI4811
aI4831
aI4857
aI4912
aI4926
aI4936
aI5012
aI5106
aI5159
aI5168
aI5372
aI5375
aI5472
aI5508
aI5537
aI5550
aI5560
aI5613
aI5629
aI5694
aI5820
aI5879
aI5927
aI5941
aI5991
aI6030
aI6116
aI6125
aI6183
aI6245
aI6296
aI6316
aI6345
aI6347
aI6348
aI6349
aI6357
aI6358
aI6390
aI6480
aI6483
aI6554
aI6568
aI6660
aI6696
aI6732
aI6776
aI6782
aI6785
aI6798
aI6849
aI6856
aI6863
aI6911
aI6912
aI7049
aI7050
aI7053
aI7055
aI7060
aI7075
aI7080
aI7132
aI7165
aI7247
aI7259
aI7304
aI7390
aI7614
aI7706
aI7714
aI7815
aI7835
aI7888
aI7979
aI8008
aI8266
aI8360
aI8487
aI8502
aI8535
aI8542
aI8574
aI8580
aI8713
aI8714
aI8738
aI8796
aI8989
aI25757
aI25797
aI25937
aI25959
aI25996
aI26084
aI26195
aI26391
aI26422
aI26564
aI26630
aI26680
aI26782
aI26999
aI27563
aI27595
aI30816
aI30818
aI31193
aI31297
aI31694
aI32019
aI32620
aI33237
aI33312
aI33725
aI34018
aI37211
aI37729
aI40819
aI40826
aI40946
aI42002
aI44889
aI45028
aI46062
aI47646
aI49396
aI49824
aI50158
aI52435
aI52579
aI52975
aI53123
aI54190
aI55872
aI56152
aI56757
aI56805
aI58107
aI58879
aI60365
aI60397
aI60803
aI61123
aI63239
aI63393
aI65810
aI66915
aI66934
aI67665
aI68835
aI68932
aI70334
aI72737
aI73042
aI73854
aI74089
aI76763
aI77931
aI79702
aI81847
aI83086
aI89386
aI90343
aI91094
aI91261
aI91266
aI91488
aI91873
aI92674
aI93006
aI93008
aI93272
aI95170
aI95307
aI95377
aI95738
aI96588
aI96832
aI99149
aI101074
aI104875
aI105540
aI106696
aI107780
aI110781
aI112316
aI113207
aI114066
aI116718
aI116941
aI118997
aI126482
aI128832
asVAnimation
p24
(lp25
I1
aI13
aI48
aI239
aI313
aI364
aI551
aI558
aI588
aI594
aI595
aI596
aI610
aI616
aI631
aI661
aI673
aI709
aI720
aI741
aI745
aI783
aI888
aI1022
aI1023
aI1024
aI1025
aI1029
aI1030
aI1032
aI1033
aI1064
aI1148
aI1151
aI1223
aI1274
aI1282
aI1405
aI1489
aI1566
aI1688
aI1881
aI1907
aI1920
aI2018
aI2033
aI2048
aI2078
aI2080
aI2081
aI2085
aI2087
aI2089
aI2090
aI2092
aI2096
aI2099
aI2102
aI2116
aI2123
aI2137
aI2138
aI2139
aI2141
aI2142
aI2294
aI2354
aI2355
aI2394
aI2495
aI2559
aI2566
aI2687
aI2700
aI2761
aI2800
aI2810
aI2857
aI2876
aI2899
aI2987
aI3000
aI3034
aI3054
aI3114
aI3159
aI3213
aI3287
aI3400
aI3429
aI3483
aI3592
aI3615
aI3687
aI3725
aI3745
aI3751
aI3754
aI3799
aI3945
aI3964
aI3990
aI4006
aI4016
aI4090
aI4154
aI4158
aI4241
aI4306
aI4366
aI4446
aI4454
aI4519
aI4624
aI4719
aI4850
aI4873
aI4886
aI4990
aI5041
aI5069
aI5072
aI5109
aI5146
aI5159
aI5218
aI5389
aI5444
aI5448
aI5460
aI5538
aI5539
aI5618
aI5629
aI5651
aI5672
aI5690
aI5879
aI5882
aI5971
aI5999
aI6093
aI6158
aI6251
aI6283
aI6350
aI6371
aI6377
aI6536
aI6713
aI6773
aI6857
aI6889
aI6946
aI7099
aI7118
aI7228
aI7304
aI8015
aI8157
aI8253
aI8360
aI8372
aI8426
aI8574
aI8607
aI8907
aI8917
aI8934
aI8961
aI8965
aI8974
aI26133
aI26183
aI26340
aI26590
aI26631
aI26662
aI26701
aI26743
aI26776
aI26903
aI26913
aI26999
aI27155
aI27156
aI27186
aI27311
aI27369
aI27441
aI27619
aI27660
aI27728
aI27731
aI27904
aI30892
aI31150
aI31184
aI31193
aI31658
aI31660
aI32031
aI32456
aI32554
aI32657
aI33090
aI33294
aI33615
aI35347
aI36397
aI36708
aI37729
aI37830
aI38038
aI40339
aI42191
aI42422
aI42734
aI43869
aI44020
aI44022
aI44849
aI45074
aI45431
aI45517
aI46337
aI46948
aI47124
aI47404
aI48414
aI48982
aI49274
aI50872
aI50999
aI51939
aI52287
aI52435
aI52462
aI52885
aI53121
aI53460
aI54272
aI55167
aI55442
aI55768
aI55995
aI56152
aI56251
aI57502
aI57504
aI58299
aI58404
aI59784
aI60069
aI60161
aI60365
aI60487
aI60803
aI60979
aI61160
aI61236
aI62008
aI62336
aI62956
aI62999
aI63859
aI64116
aI64249
aI64285
aI64695
aI64993
aI65261
aI65577
aI66097
aI66297
aI66335
aI66915
aI67295
aI67408
aI68945
aI68954
aI68959
aI69469
aI69644
aI69685
aI69746
aI70533
aI71057
aI71129
aI71264
aI71484
aI71494
aI71899
aI72104
aI72226
aI72294
aI72356
aI72601
aI72603
aI72692
aI72701
aI72737
aI73042
aI73854
aI74095
aI74553
aI74791
aI76093
aI76301
aI77709
aI78499
aI78637
aI79008
aI79091
aI79274
aI80083
aI80615
aI80834
aI81018
aI81564
aI81847
aI83132
aI83803
aI84187
aI84414
aI84637
aI84944
aI85179
aI85259
aI85261
aI85316
aI85736
aI85780
aI86059
aI86286
aI86298
aI86721
aI87222
aI87834
aI87876
aI88267
aI88345
aI88356
aI89586
aI90603
aI90647
aI90746
aI91233
aI91353
aI91355
aI91386
aI91414
aI91488
aI91671
aI92348
aI93208
aI93272
aI94160
aI94833
aI95004
aI95105
aI95145
aI95147
aI95149
aI95163
aI95165
aI95167
aI95170
aI95182
aI95193
aI95311
aI95313
aI95377
aI95473
aI95475
aI95497
aI95499
aI95519
aI95543
aI95654
aI95771
aI95780
aI95858
aI95965
aI96004
aI96007
aI96281
aI96608
aI97172
aI97225
aI97913
aI98124
aI98243
aI98491
aI98604
aI98607
aI98799
aI99764
aI99813
aI100611
aI101074
aI101142
aI101423
aI101962
aI102007
aI102058
aI102084
aI102720
aI103141
aI103210
aI103233
aI103335
aI103755
aI104076
aI104141
aI104245
aI104283
aI104419
aI104780
aI105468
aI105540
aI106696
aI106873
aI107953
aI107999
aI108090
aI108540
aI108795
aI108932
aI109383
aI109596
aI109633
aI109846
aI109941
aI110130
aI110655
aI110781
aI111146
aI112006
aI112175
aI112460
aI112512
aI113278
aI113374
aI114554
aI114627
aI115065
aI115111
aI115617
aI115664
aI115819
aI115877
aI116941
aI117368
aI117444
aI117545
aI117851
aI117877
aI117922
aI118894
aI120130
aI121099
aI121781
aI124404
aI124853
aI126088
aI126090
aI126482
aI126577
aI126921
aI127390
aI128968
aI128991
aI129779
aI130518
aI130520
aI131098
aI131130
aI131656
aI131739
aI132362
aI134019
aI134095
aI134849
aI134853
aI135436
aI135456
aI135887
aI136016
aI136024
aI136297
aI136341
aI136353
aI136355
aI136359
aI136449
aI136503
aI136556
aI137859
aI137863
aI138702
aI138835
aI138966
aI139130
aI139640
aI139855
aI139859
aI140481
aI140541
aI142056
aI142997
aI143245
aI145080
aI145935
aI146309
aI146662
aI146684
aI148881
aI148978
aI149406
aI151769
aI151781
aI152081
aI153236
aI156025
aI156553
aI157296
aI157340
aI157775
aI157865
aI158035
aI158872
aI159403
aI159811
aI160569
aI160718
aI160848
aI161354
aI161594
aI162578
aI162968
aI162982
aI163072
aI163112
aI163134
aI163386
aI163639
aI163809
aI163925
aI164200
aI165959
aI166183
aI166291
aI166461
aI167036
aI167746
aI167772
aI168090
aI168218
aI168418
aI170297
aI170597
aI170777
aI170939
aI170957
aI172547
aI172577
aI172583
aI172585
aI172587
aI172589
aI172637
aI172793
aI172825
aI172875
aI172881
aI172887
aI172909
aI173351
aI173355
aI174141
aI175293
aI175387
aI175397
aI175401
aI175431
aI175435
aI175475
aI176051
aI176389
aI176621
aI177285
aI177765
aI177939
aI178111
aI178827
aI179133
aI180987
aI182293
aI182297
aI182299
aI182639
aI183897
aI187541
aI190219
aI193565
aI193567
aI193573
aI193581
aI193583
aI193587
asVWar
p26
(lp27
I41
aI73
aI110
aI151
aI155
aI157
aI161
aI214
aI266
aI336
aI340
aI356
aI389
aI466
aI473
aI527
aI632
aI647
aI665
aI688
aI750
aI760
aI897
aI920
aI946
aI969
aI976
aI979
aI1078
aI1090
aI1161
aI1178
aI1183
aI1204
aI1208
aI1217
aI1222
aI1224
aI1233
aI1242
aI1250
aI1256
aI1262
aI1263
aI1267
aI1272
aI1281
aI1299
aI1398
aI1408
aI1445
aI1507
aI1616
aI1619
aI1663
aI1670
aI1696
aI1873
aI1920
aI1927
aI1936
aI1939
aI1944
aI2028
aI2067
aI2075
aI2106
aI2202
aI2322
aI2324
aI2358
aI2404
aI2427
aI2436
aI2476
aI2669
aI2670
aI2728
aI2730
aI2815
aI2816
aI2818
aI2890
aI2897
aI2919
aI2941
aI2944
aI2972
aI3003
aI3022
aI3035
aI3053
aI3062
aI3066
aI3091
aI3117
aI3134
aI3143
aI3196
aI3342
aI3372
aI3406
aI3414
aI3441
aI3448
aI3519
aI3555
aI3628
aI3643
aI3654
aI3724
aI3742
aI3753
aI3766
aI3767
aI3768
aI3808
aI3811
aI3836
aI3985
aI3992
aI4008
aI4033
aI4042
aI4047
aI4103
aI4111
aI4194
aI4207
aI4223
aI4310
aI4323
aI4337
aI4338
aI4339
aI4349
aI4353
aI4407
aI4463
aI4473
aI4475
aI4577
aI4594
aI4727
aI4795
aI4802
aI4826
aI4902
aI4916
aI4958
aI4967
aI5010
aI5060
aI5107
aI5152
aI5288
aI5304
aI5373
aI5420
aI5425
aI5541
aI5611
aI5651
aI5690
aI5747
aI5799
aI5801
aI5817
aI5876
aI5899
aI5915
aI5953
aI5965
aI5975
aI5995
aI6107
aI6181
aI6186
aI6235
aI6263
aI6422
aI6428
aI6434
aI6542
aI6561
aI6567
aI6808
aI6818
aI6886
aI6947
aI6982
aI7025
aI7065
aI7104
aI7118
aI7122
aI7143
aI7156
aI7162
aI7215
aI7238
aI7248
aI7292
aI7303
aI7307
aI7336
aI7379
aI7458
aI7560
aI7756
aI7766
aI7840
aI7936
aI7980
aI8045
aI8118
aI8190
aI8197
aI8337
aI8446
aI8461
aI8484
aI8493
aI8582
aI8640
aI8690
aI8724
aI8730
aI8795
aI8977
aI9018
aI26003
aI26048
aI26073
aI26095
aI26122
aI26131
aI26142
aI26150
aI26158
aI26236
aI26359
aI26681
aI26764
aI26791
aI27397
aI27611
aI27692
aI27704
aI27721
aI27793
aI27816
aI27869
aI30749
aI31116
aI31150
aI31410
aI31617
aI31702
aI31973
aI32022
aI32515
aI32649
aI32892
aI32906
aI33124
aI33162
aI34536
aI36397
aI36529
aI40278
aI40414
aI41527
aI41828
aI42943
aI43376
aI43677
aI46559
aI46855
aI47894
aI48032
aI48319
aI48649
aI48783
aI49265
aI49530
aI49688
aI50068
aI51662
aI52042
aI52319
aI53550
aI54686
aI55052
aI55253
aI55946
aI56060
aI56788
aI57499
aI57528
aI58303
aI58306
aI58376
aI58842
aI58876
aI60046
aI60389
aI60894
aI61026
aI61132
aI61236
aI63853
aI64034
aI64499
aI64501
aI64983
aI65216
aI65514
aI66544
aI68157
aI68486
aI68872
aI69481
aI69849
aI69860
aI70451
aI71810
aI72178
aI72479
aI72605
aI74342
aI74688
aI74795
aI77201
aI77866
aI78103
aI78142
aI81158
aI82765
aI85131
aI86781
aI87232
aI87520
aI88140
aI88327
aI90384
aI91126
aI92234
aI92243
aI93040
aI93297
aI98154
aI98239
aI103685
aI105121
aI106441
aI107069
aI107408
aI108928
aI109673
aI114662
aI115210
aI115969
aI116529
aI116797
aI117364
aI117867
aI118702
aI122092
aI122260
aI126430
aI140627
aI141890
aI152083
aI155288
aI160422
aI163645
aI170705
aI171811
aI173209
aI174055
aI179817
asVAdventure
p28
(lp29
I1
aI2
aI8
aI10
aI13
aI15
aI29
aI44
aI53
aI60
aI86
aI95
aI101
aI107
aI112
aI126
aI146
aI150
aI153
aI155
aI158
aI160
aI169
aI170
aI208
aI212
aI231
aI238
aI258
aI260
aI316
aI329
aI340
aI362
aI364
aI368
aI380
aI393
aI421
aI432
aI434
aI442
aI455
aI459
aI464
aI480
aI484
aI485
aI494
aI533
aI546
aI547
aI552
aI558
aI577
aI588
aI590
aI599
aI609
aI610
aI631
aI648
aI653
aI661
aI673
aI674
aI688
aI704
aI709
aI711
aI720
aI733
aI736
aI761
aI780
aI798
aI808
aI809
aI828
aI836
aI849
aI888
aI897
aI908
aI919
aI924
aI940
aI941
aI952
aI969
aI970
aI986
aI990
aI1008
aI1009
aI1015
aI1017
aI1019
aI1027
aI1030
aI1031
aI1032
aI1049
aI1085
aI1127
aI1129
aI1136
aI1196
aI1197
aI1198
aI1200
aI1201
aI1204
aI1210
aI1215
aI1216
aI1223
aI1250
aI1254
aI1259
aI1262
aI1270
aI1274
aI1275
aI1287
aI1291
aI1303
aI1306
aI1356
aI1367
aI1370
aI1371
aI1374
aI1375
aI1376
aI1405
aI1419
aI1429
aI1495
aI1499
aI1517
aI1527
aI1544
aI1551
aI1552
aI1562
aI1566
aI1582
aI1587
aI1591
aI1605
aI1606
aI1610
aI1615
aI1619
aI1681
aI1688
aI1722
aI1726
aI1748
aI1801
aI1806
aI1826
aI1831
aI1848
aI1867
aI1881
aI1884
aI1887
aI1894
aI1907
aI1931
aI1948
aI1967
aI2005
aI2011
aI2012
aI2013
aI2019
aI2021
aI2033
aI2037
aI2041
aI2043
aI2046
aI2050
aI2051
aI2054
aI2056
aI2057
aI2077
aI2085
aI2088
aI2089
aI2090
aI2092
aI2093
aI2094
aI2099
aI2103
aI2105
aI2115
aI2116
aI2133
aI2135
aI2138
aI2139
aI2140
aI2141
aI2142
aI2143
aI2147
aI2150
aI2153
aI2161
aI2162
aI2183
aI2193
aI2265
aI2275
aI2294
aI2297
aI2344
aI2355
aI2366
aI2367
aI2368
aI2370
aI2373
aI2376
aI2384
aI2399
aI2402
aI2403
aI2404
aI2405
aI2406
aI2414
aI2421
aI2422
aI2429
aI2430
aI2450
aI2470
aI2471
aI2477
aI2483
aI2524
aI2528
aI2537
aI2615
aI2617
aI2625
aI2628
aI2632
aI2640
aI2642
aI2643
aI2683
aI2687
aI2720
aI2733
aI2734
aI2735
aI2748
aI2761
aI2794
aI2800
aI2822
aI2826
aI2835
aI2846
aI2847
aI2851
aI2857
aI2863
aI2871
aI2872
aI2879
aI2880
aI2890
aI2893
aI2899
aI2905
aI2916
aI2936
aI2947
aI2948
aI2949
aI2950
aI2966
aI2968
aI2970
aI2987
aI2989
aI2990
aI2991
aI2993
aI3000
aI3030
aI3034
aI3036
aI3052
aI3054
aI3070
aI3082
aI3114
aI3153
aI3168
aI3175
aI3190
aI3259
aI3285
aI3345
aI3347
aI3389
aI3390
aI3396
aI3400
aI3401
aI3406
aI3412
aI3417
aI3418
aI3440
aI3461
aI3470
aI3471
aI3479
aI3489
aI3492
aI3494
aI3508
aI3578
aI3608
aI3615
aI3623
aI3624
aI3629
aI3633
aI3635
aI3638
aI3639
aI3654
aI3672
aI3673
aI3674
aI3687
aI3699
aI3702
aI3703
aI3704
aI3740
aI3745
aI3752
aI3754
aI3771
aI3793
aI3807
aI3827
aI3834
aI3864
aI3877
aI3889
aI3926
aI3927
aI3930
aI3945
aI3959
aI3974
aI3984
aI3997
aI3999
aI4000
aI4005
aI4006
aI4016
aI4027
aI4103
aI4121
aI4133
aI4135
aI4142
aI4207
aI4232
aI4247
aI4270
aI4275
aI4306
aI4312
aI4323
aI4327
aI4339
aI4366
aI4367
aI4370
aI4445
aI4446
aI4467
aI4477
aI4519
aI4534
aI4565
aI4571
aI4591
aI4634
aI4638
aI4643
aI4653
aI4683
aI4686
aI4688
aI4704
aI4734
aI4756
aI4795
aI4799
aI4800
aI4812
aI4818
aI4821
aI4826
aI4886
aI4896
aI4899
aI4911
aI4915
aI4941
aI4951
aI4953
aI4956
aI4962
aI4964
aI4980
aI4985
aI4987
aI4988
aI4990
aI4993
aI4998
aI5007
aI5039
aI5040
aI5048
aI5064
aI5069
aI5076
aI5109
aI5171
aI5209
aI5218
aI5244
aI5264
aI5300
aI5313
aI5349
aI5357
aI5358
aI5361
aI5378
aI5389
aI5419
aI5433
aI5444
aI5446
aI5448
aI5462
aI5463
aI5479
aI5493
aI5497
aI5499
aI5504
aI5523
aI5524
aI5540
aI5582
aI5596
aI5611
aI5618
aI5638
aI5657
aI5672
aI5700
aI5720
aI5796
aI5803
aI5816
aI5839
aI5841
aI5872
aI5880
aI5882
aI5952
aI5974
aI5999
aI6016
aI6111
aI6116
aI6156
aI6162
aI6169
aI6170
aI6232
aI6239
aI6294
aI6297
aI6316
aI6333
aI6350
aI6365
aI6377
aI6405
aI6448
aI6503
aI6527
aI6534
aI6536
aI6537
aI6539
aI6557
aI6564
aI6566
aI6584
aI6624
aI6625
aI6645
aI6654
aI6664
aI6709
aI6721
aI6760
aI6764
aI6808
aI6817
aI6857
aI6882
aI6889
aI6902
aI6934
aI6947
aI6950
aI6959
aI6986
aI6990
aI7000
aI7048
aI7063
aI7070
aI7075
aI7087
aI7090
aI7099
aI7143
aI7153
aI7164
aI7205
aI7215
aI7247
aI7248
aI7256
aI7262
aI7302
aI7307
aI7308
aI7317
aI7324
aI7345
aI7369
aI7373
aI7386
aI7394
aI7454
aI7458
aI7481
aI7569
aI7570
aI7573
aI7649
aI7700
aI7720
aI7743
aI7757
aI7802
aI7810
aI7822
aI7840
aI7896
aI7925
aI8015
aI8118
aI8167
aI8253
aI8341
aI8360
aI8361
aI8368
aI8450
aI8481
aI8526
aI8534
aI8580
aI8591
aI8607
aI8633
aI8636
aI8640
aI8644
aI8684
aI8713
aI8743
aI8782
aI8795
aI8807
aI8830
aI8832
aI8865
aI8873
aI8905
aI8917
aI8961
aI8965
aI8968
aI8972
aI8974
aI8977
aI9004
aI25834
aI25946
aI25962
aI26085
aI26142
aI26152
aI26183
aI26184
aI26236
aI26265
aI26340
aI26444
aI26472
aI26504
aI26510
aI26542
aI26590
aI26614
aI26649
aI26662
aI26750
aI26776
aI26792
aI26849
aI26901
aI26999
aI27032
aI27036
aI27155
aI27186
aI27251
aI27368
aI27450
aI27618
aI27619
aI27706
aI27708
aI27731
aI27816
aI27837
aI27865
aI30793
aI30810
aI31221
aI31367
aI31553
aI31617
aI31658
aI31698
aI31921
aI31923
aI31925
aI32031
aI32296
aI32314
aI32511
aI32515
aI32596
aI32898
aI33004
aI33138
aI33493
aI33558
aI33615
aI33629
aI33669
aI33679
aI33681
aI33801
aI33830
aI34048
aI34150
aI34332
aI34334
aI34397
aI34405
aI34520
aI35015
aI36289
aI36397
aI36509
aI36708
aI37830
aI37853
aI37857
aI38038
aI38294
aI39435
aI39801
aI40339
aI40732
aI40815
aI40851
aI41566
aI41569
aI41863
aI42004
aI42009
aI42015
aI42418
aI42559
aI42761
aI42943
aI43289
aI43836
aI43869
aI43917
aI44022
aI44399
aI45074
aI45186
aI45208
aI45431
aI45442
aI45672
aI45722
aI46530
aI46578
aI47124
aI47384
aI47404
aI47538
aI47997
aI48304
aI48319
aI48412
aI48414
aI48774
aI49272
aI49274
aI49396
aI49530
aI49649
aI50003
aI50601
aI50798
aI51024
aI51314
aI51575
aI51698
aI51939
aI52287
aI52319
aI52328
aI52462
aI52722
aI53121
aI53125
aI53138
aI53140
aI53453
aI53464
aI53466
aI53519
aI53550
aI53972
aI54001
aI54259
aI54686
aI55116
aI55167
aI55247
aI55259
aI55269
aI55995
aI56152
aI56171
aI56775
aI56915
aI57326
aI57499
aI57502
aI57640
aI57951
aI58025
aI58105
aI58293
aI58299
aI58404
aI58972
aI59022
aI59103
aI59315
aI59387
aI59501
aI59615
aI60069
aI60074
aI60471
aI60514
aI60516
aI60818
aI60937
aI61026
aI61071
aI61132
aI61160
aI61210
aI61248
aI61350
aI61818
aI62376
aI62383
aI62956
aI62970
aI62999
aI63072
aI63113
aI63433
aI63540
aI63853
aI63859
aI64030
aI64167
aI64249
aI64695
aI65088
aI65261
aI65350
aI65359
aI65577
aI65588
aI65651
aI65685
aI65982
aI66785
aI66798
aI66915
aI67168
aI68358
aI68659
aI68791
aI68835
aI68848
aI68954
aI68959
aI69275
aI69278
aI69436
aI69453
aI69524
aI69526
aI69644
aI69746
aI69805
aI69844
aI70305
aI70336
aI70697
aI70703
aI71057
aI71129
aI71160
aI71745
aI71810
aI71970
aI71999
aI72165
aI72226
aI72308
aI72601
aI72701
aI72982
aI72998
aI73321
aI73499
aI73804
aI73854
aI74530
aI74624
aI74789
aI75416
aI76093
aI76175
aI76743
aI77364
aI77561
aI77709
aI77841
aI77866
aI78105
aI78499
aI78637
aI78893
aI79139
aI79695
aI79895
aI80083
aI80219
aI80615
aI80748
aI80839
aI81132
aI81562
aI81834
aI82169
aI82461
aI82765
aI82854
aI82857
aI83480
aI84414
aI84637
aI84772
aI84944
aI85025
aI85179
aI85261
aI85295
aI85736
aI85796
aI86190
aI86298
aI86332
aI86593
aI86864
aI86880
aI87194
aI87222
aI87232
aI87430
aI87520
aI87529
aI87876
aI88108
aI88125
aI88140
aI89087
aI89190
aI89305
aI89586
aI89745
aI90403
aI90522
aI90647
aI90945
aI91104
aI91353
aI91355
aI91485
aI91500
aI91529
aI91535
aI91542
aI91630
aI92234
aI92348
aI92681
aI93139
aI93363
aI93610
aI93766
aI94015
aI94780
aI94833
aI95105
aI95145
aI95147
aI95163
aI95165
aI95167
aI95182
aI95193
aI95313
aI95473
aI95475
aI95497
aI95499
aI95510
aI95519
aI95543
aI95717
aI95771
aI95780
aI95965
aI96004
aI96007
aI96079
aI96281
aI97665
aI97757
aI97938
aI97950
aI98203
aI98243
aI98697
aI98809
aI100611
aI100882
aI101025
aI101076
aI101112
aI101142
aI101577
aI101765
aI101864
aI101884
aI102194
aI102338
aI102445
aI102666
aI102720
aI102880
aI103042
aI103141
aI103210
aI103228
aI103233
aI103384
aI103755
aI103772
aI104017
aI104074
aI104245
aI104780
aI104875
aI105197
aI105254
aI105504
aI105954
aI106002
aI106072
aI106487
aI106489
aI106491
aI106642
aI106696
aI106918
aI107410
aI107723
aI107846
aI108090
aI108190
aI108540
aI108795
aI108932
aI109042
aI109846
aI110102
aI110127
aI110130
aI110297
aI110655
aI111146
aI111362
aI111364
aI111659
aI111781
aI111785
aI112175
aI112370
aI112460
aI112852
aI112897
aI112911
aI113345
aI113348
aI114678
aI115065
aI115664
aI115727
aI115828
aI116738
aI116823
aI116887
aI117192
aI117466
aI117529
aI117646
aI117851
aI117877
aI117922
aI118696
aI118706
aI119145
aI119155
aI119655
aI120799
aI121007
aI121097
aI121338
aI122882
aI122886
aI122890
aI122892
aI122898
aI122900
aI122902
aI122904
aI122906
aI122912
aI122916
aI122918
aI122922
aI122924
aI122926
aI123553
aI124404
aI124851
aI125914
aI125970
aI125974
aI126142
aI126430
aI126921
aI127134
aI127323
aI128842
aI128908
aI128944
aI129229
aI130444
aI130450
aI130518
aI130520
aI130842
aI131656
aI131714
aI131739
aI132046
aI132462
aI133867
aI134130
aI134515
aI134775
aI134853
aI135133
aI135216
aI135532
aI135567
aI135569
aI135887
aI136016
aI136020
aI136598
aI136800
aI136859
aI136864
aI136912
aI137857
aI137859
aI137863
aI138036
aI138208
aI138835
aI139130
aI139385
aI140359
aI141544
aI141816
aI141830
aI141844
aI142056
aI142448
aI142509
aI143355
aI144620
aI145935
aI146309
aI146662
aI147372
aI147374
aI147378
aI147380
aI147662
aI148172
aI148775
aI149406
aI150554
aI152063
aI152065
aI152081
aI152970
aI155358
aI155774
aI156025
aI156607
aI157296
aI157865
aI158813
aI159403
aI159690
aI160563
aI160569
aI160573
aI161594
aI161918
aI162578
aI163056
aI163809
aI164226
aI166183
aI166203
aI166461
aI166526
aI166528
aI166635
aI167370
aI168026
aI168254
aI168456
aI169982
aI170827
aI170957
aI171765
aI172547
aI172585
aI172637
aI172793
aI172825
aI173145
aI173291
aI173873
aI175387
aI176101
aI176389
aI177285
aI177765
aI178827
aI179401
aI179511
aI179819
aI180031
aI182715
aI184471
aI184641
aI184987
aI185031
aI186587
aI187031
aI187541
aI187595
aI188301
aI188833
aI189333
aI191005
asVAction
p30
(lp31
I6
aI9
aI10
aI15
aI20
aI23
aI42
aI44
aI66
aI70
aI71
aI76
aI78
aI86
aI89
aI95
aI110
aI112
aI145
aI151
aI153
aI160
aI163
aI165
aI168
aI170
aI172
aI173
aI181
aI185
aI198
aI204
aI208
aI227
aI236
aI251
aI260
aI284
aI288
aI292
aI293
aI303
aI315
aI316
aI327
aI330
aI338
aI349
aI353
aI360
aI367
aI370
aI376
aI377
aI379
aI380
aI384
aI387
aI390
aI393
aI405
aI420
aI423
aI434
aI438
aI442
aI459
aI464
aI466
aI474
aI479
aI480
aI485
aI493
aI494
aI502
aI504
aI511
aI517
aI519
aI522
aI533
aI541
aI544
aI546
aI547
aI548
aI552
aI553
aI558
aI589
aI592
aI600
aI610
aI611
aI647
aI648
aI653
aI667
aI688
aI692
aI694
aI704
aI733
aI736
aI737
aI748
aI761
aI780
aI786
aI798
aI809
aI836
aI839
aI849
aI861
aI875
aI876
aI886
aI908
aI940
aI990
aI996
aI998
aI1004
aI1036
aI1037
aI1047
aI1049
aI1100
aI1101
aI1112
aI1127
aI1129
aI1170
aI1196
aI1197
aI1198
aI1200
aI1201
aI1208
aI1209
aI1210
aI1215
aI1218
aI1220
aI1224
aI1233
aI1240
aI1249
aI1254
aI1261
aI1262
aI1264
aI1274
aI1275
aI1287
aI1291
aI1304
aI1320
aI1356
aI1370
aI1372
aI1373
aI1374
aI1375
aI1377
aI1378
aI1379
aI1382
aI1385
aI1387
aI1389
aI1391
aI1396
aI1408
aI1427
aI1429
aI1431
aI1432
aI1438
aI1465
aI1473
aI1479
aI1488
aI1495
aI1497
aI1499
aI1515
aI1517
aI1518
aI1527
aI1544
aI1552
aI1556
aI1562
aI1573
aI1580
aI1586
aI1587
aI1589
aI1591
aI1599
aI1604
aI1606
aI1608
aI1610
aI1616
aI1626
aI1631
aI1667
aI1676
aI1681
aI1687
aI1690
aI1722
aI1726
aI1739
aI1752
aI1762
aI1769
aI1772
aI1792
aI1801
aI1831
aI1833
aI1858
aI1866
aI1867
aI1882
aI1909
aI1917
aI1918
aI1927
aI1953
aI2000
aI2001
aI2002
aI2005
aI2006
aI2013
aI2019
aI2028
aI2041
aI2048
aI2055
aI2058
aI2094
aI2105
aI2115
aI2126
aI2153
aI2164
aI2167
aI2170
aI2193
aI2194
aI2196
aI2273
aI2275
aI2278
aI2281
aI2288
aI2307
aI2322
aI2334
aI2344
aI2353
aI2364
aI2365
aI2366
aI2370
aI2373
aI2376
aI2393
aI2402
aI2403
aI2404
aI2405
aI2406
aI2409
aI2410
aI2411
aI2412
aI2414
aI2421
aI2422
aI2427
aI2429
aI2457
aI2468
aI2471
aI2475
aI2476
aI2490
aI2521
aI2524
aI2525
aI2527
aI2528
aI2529
aI2530
aI2531
aI2532
aI2533
aI2534
aI2535
aI2540
aI2549
aI2568
aI2571
aI2582
aI2600
aI2614
aI2616
aI2617
aI2625
aI2628
aI2640
aI2641
aI2642
aI2643
aI2662
aI2683
aI2692
aI2701
aI2716
aI2720
aI2722
aI2723
aI2728
aI2735
aI2737
aI2741
aI2748
aI2763
aI2802
aI2807
aI2808
aI2812
aI2815
aI2816
aI2817
aI2818
aI2826
aI2835
aI2879
aI2880
aI2881
aI2887
aI2890
aI2892
aI2893
aI2905
aI2916
aI2924
aI2944
aI2947
aI2948
aI2949
aI2951
aI2956
aI2959
aI2965
aI2985
aI2986
aI2989
aI2990
aI2991
aI2993
aI3000
aI3020
aI3029
aI3030
aI3032
aI3062
aI3066
aI3082
aI3104
aI3107
aI3113
aI3153
aI3165
aI3197
aI3204
aI3208
aI3256
aI3264
aI3265
aI3267
aI3268
aI3275
aI3283
aI3316
aI3372
aI3384
aI3389
aI3404
aI3405
aI3406
aI3430
aI3431
aI3432
aI3433
aI3434
aI3438
aI3439
aI3440
aI3441
aI3442
aI3444
aI3452
aI3508
aI3519
aI3527
aI3555
aI3563
aI3576
aI3578
aI3584
aI3593
aI3623
aI3624
aI3628
aI3633
aI3635
aI3638
aI3639
aI3643
aI3654
aI3667
aI3681
aI3682
aI3697
aI3698
aI3702
aI3703
aI3704
aI3705
aI3710
aI3716
aI3717
aI3726
aI3729
aI3740
aI3744
aI3745
aI3753
aI3761
aI3763
aI3764
aI3766
aI3767
aI3768
aI3769
aI3771
aI3793
aI3802
aI3827
aI3836
aI3837
aI3841
aI3864
aI3868
aI3877
aI3879
aI3889
aI3898
aI3946
aI3947
aI3957
aI3959
aI3972
aI3977
aI3981
aI3984
aI3986
aI3996
aI3997
aI3999
aI4005
aI4042
aI4053
aI4064
aI4065
aI4066
aI4084
aI4085
aI4086
aI4103
aI4121
aI4133
aI4142
aI4159
aI4161
aI4166
aI4180
aI4200
aI4203
aI4207
aI4210
aI4224
aI4232
aI4238
aI4262
aI4265
aI4270
aI4275
aI4299
aI4310
aI4339
aI4344
aI4351
aI4353
aI4355
aI4367
aI4369
aI4387
aI4396
aI4397
aI4434
aI4438
aI4440
aI4441
aI4442
aI4443
aI4444
aI4448
aI4466
aI4488
aI4497
aI4498
aI4531
aI4552
aI4553
aI4565
aI4568
aI4572
aI4574
aI4580
aI4583
aI4594
aI4597
aI4613
aI4614
aI4629
aI4630
aI4632
aI4635
aI4636
aI4638
aI4640
aI4643
aI4654
aI4673
aI4675
aI4701
aI4717
aI4719
aI4721
aI4748
aI4749
aI4750
aI4756
aI4799
aI4800
aI4802
aI4818
aI4826
aI4846
aI4850
aI4855
aI4866
aI4879
aI4887
aI4901
aI4915
aI4939
aI4941
aI4946
aI4947
aI4956
aI4958
aI4965
aI4985
aI4987
aI5010
aI5026
aI5027
aI5039
aI5040
aI5046
aI5047
aI5049
aI5055
aI5064
aI5069
aI5093
aI5094
aI5152
aI5155
aI5156
aI5170
aI5171
aI5181
aI5209
aI5212
aI5219
aI5220
aI5240
aI5244
aI5246
aI5247
aI5248
aI5254
aI5264
aI5300
aI5313
aI5349
aI5378
aI5388
aI5409
aI5414
aI5418
aI5420
aI5423
aI5438
aI5442
aI5445
aI5459
aI5460
aI5463
aI5478
aI5479
aI5490
aI5493
aI5507
aI5521
aI5522
aI5523
aI5540
aI5541
aI5543
aI5574
aI5580
aI5609
aI5612
aI5621
aI5628
aI5638
aI5657
aI5665
aI5678
aI5700
aI5720
aI5746
aI5782
aI5785
aI5786
aI5796
aI5803
aI5833
aI5843
aI5872
aI5880
aI5899
aI5903
aI5915
aI5922
aI5944
aI5961
aI5965
aI5999
aI6013
aI6014
aI6016
aI6051
aI6057
aI6059
aI6078
aI6095
aI6156
aI6157
aI6185
aI6186
aI6196
aI6210
aI6213
aI6219
aI6264
aI6280
aI6283
aI6294
aI6300
aI6333
aI6350
aI6365
aI6378
aI6383
aI6387
aI6395
aI6417
aI6448
aI6484
aI6502
aI6503
aI6506
aI6534
aI6537
aI6539
aI6541
aI6548
aI6550
aI6560
aI6564
aI6566
aI6574
aI6577
aI6582
aI6583
aI6595
aI6597
aI6615
aI6616
aI6618
aI6624
aI6645
aI6664
aI6686
aI6709
aI6720
aI6721
aI6722
aI6723
aI6754
aI6764
aI6800
aI6808
aI6812
aI6814
aI6835
aI6857
aI6872
aI6874
aI6882
aI6893
aI6934
aI6946
aI6959
aI6966
aI6990
aI6994
aI6996
aI7000
aI7004
aI7007
aI7016
aI7017
aI7022
aI7027
aI7031
aI7040
aI7047
aI7048
aI7056
aI7070
aI7072
aI7076
aI7090
aI7108
aI7127
aI7143
aI7153
aI7163
aI7164
aI7175
aI7192
aI7193
aI7235
aI7248
aI7262
aI7302
aI7307
aI7310
aI7325
aI7345
aI7360
aI7369
aI7373
aI7376
aI7381
aI7387
aI7394
aI7438
aI7439
aI7445
aI7454
aI7458
aI7482
aI7562
aI7569
aI7570
aI7573
aI7657
aI7700
aI7704
aI7720
aI7756
aI7757
aI7766
aI7782
aI7802
aI7844
aI7894
aI7899
aI7925
aI7980
aI7991
aI8016
aI8045
aI8093
aI8117
aI8118
aI8132
aI8142
aI8167
aI8235
aI8241
aI8253
aI8268
aI8290
aI8361
aI8369
aI8370
aI8371
aI8446
aI8481
aI8493
aI8500
aI8501
aI8531
aI8578
aI8593
aI8604
aI8605
aI8633
aI8636
aI8640
aI8644
aI8665
aI8666
aI8677
aI8730
aI8782
aI8795
aI8798
aI8810
aI8832
aI8860
aI8861
aI8865
aI8894
aI8908
aI8912
aI8917
aI8937
aI8961
aI8968
aI8972
aI8977
aI8983
aI8984
aI8985
aI25946
aI25962
aI26152
aI26159
aI26169
aI26172
aI26183
aI26184
aI26236
aI26242
aI26322
aI26340
aI26344
aI26375
aI26399
aI26401
aI26413
aI26464
aI26504
aI26547
aI26590
aI26593
aI26606
aI26614
aI26681
aI26696
aI26701
aI26736
aI26764
aI26765
aI26792
aI26819
aI26828
aI26840
aI26854
aI26865
aI26913
aI26985
aI27002
aI27003
aI27022
aI27032
aI27036
aI27134
aI27155
aI27156
aI27193
aI27311
aI27328
aI27426
aI27441
aI27480
aI27595
aI27618
aI27660
aI27683
aI27689
aI27692
aI27695
aI27704
aI27705
aI27708
aI27728
aI27793
aI27801
aI27802
aI27816
aI27837
aI27865
aI27869
aI27905
aI31101
aI31184
aI31221
aI31367
aI31420
aI31424
aI31553
aI31617
aI31660
aI31664
aI31696
aI31804
aI31867
aI31878
aI31923
aI32017
aI32029
aI32243
aI32300
aI32387
aI32440
aI32460
aI32511
aI32587
aI32596
aI32632
aI32898
aI33132
aI33158
aI33162
aI33437
aI33493
aI33672
aI33679
aI33681
aI33794
aI33801
aI33834
aI34048
aI34150
aI34292
aI34319
aI34323
aI34332
aI34334
aI34397
aI34405
aI34450
aI34520
aI34534
aI34536
aI34811
aI36509
aI36519
aI36529
aI36850
aI36931
aI37380
aI37386
aI37477
aI37727
aI37733
aI37830
aI37853
aI38095
aI38294
aI38583
aI39400
aI39435
aI40278
aI40339
aI40578
aI40851
aI40959
aI41569
aI41627
aI41997
aI42015
aI42559
aI42718
aI42738
aI42946
aI43419
aI43549
aI43558
aI43917
aI43921
aI43928
aI43932
aI44020
aI44191
aI44597
aI44849
aI45183
aI45186
aI45442
aI45499
aI45722
aI46322
aI46335
aI46530
aI46855
aI46965
aI46970
aI46972
aI47044
aI47200
aI47254
aI47538
aI47952
aI48319
aI48412
aI48596
aI48678
aI48774
aI49272
aI49278
aI49314
aI49530
aI49649
aI49651
aI49688
aI50003
aI50005
aI50147
aI50445
aI50794
aI51077
aI51255
aI51412
aI51545
aI51662
aI51935
aI51939
aI52281
aI52287
aI52319
aI52462
aI52722
aI52831
aI52950
aI53022
aI53125
aI53138
aI53140
aI53143
aI53453
aI53464
aI53519
aI53550
aI53972
aI53996
aI54286
aI54648
aI54686
aI54736
aI54771
aI54908
aI54995
aI54997
aI54999
aI55116
aI55167
aI55232
aI55247
aI55259
aI55721
aI55995
aI56156
aI56174
aI56336
aI56775
aI56801
aI56921
aI57326
aI57368
aI57499
aI57528
aI57640
aI57843
aI57951
aI58025
aI58103
aI58295
aI58297
aI58404
aI58559
aI58627
aI58826
aI58842
aI59014
aI59037
aI59103
aI59129
aI59315
aI59336
aI59369
aI59615
aI59784
aI59947
aI60040
aI60072
aI60074
aI60126
aI60161
aI60471
aI60514
aI60522
aI60684
aI60937
aI60979
aI61024
aI61026
aI61073
aI61132
aI61160
aI61210
aI61248
aI61289
aI61350
aI61401
aI61465
aI61818
aI62008
aI62081
aI62299
aI62374
aI62383
aI62394
aI62849
aI62956
aI62999
aI63113
aI63222
aI63276
aI63433
aI63826
aI63859
aI64030
aI64231
aI64695
aI64997
aI65514
aI65588
aI65596
aI65631
aI65682
aI65802
aI65982
aI66297
aI66785
aI67197
aI67295
aI67361
aI67508
aI67695
aI67923
aI68157
aI68205
aI68319
aI68358
aI68480
aI68486
aI68597
aI68791
aI68793
aI68945
aI68959
aI69131
aI69275
aI69278
aI69481
aI69524
aI69526
aI69644
aI69654
aI69746
aI69805
aI70336
aI70361
aI70451
aI70533
aI70697
aI70728
aI71129
aI71156
aI71160
aI71254
aI71468
aI71494
aI71530
aI71535
aI71810
aI71910
aI71999
aI72142
aI72165
aI72167
aI72171
aI72308
aI72378
aI72424
aI72489
aI72554
aI72591
aI72601
aI72874
aI72982
aI72998
aI73017
aI73268
aI73321
aI73323
aI73488
aI73499
aI73569
aI73676
aI73741
aI73876
aI73929
aI74510
aI74532
aI74580
aI74668
aI74685
aI74795
aI74851
aI75416
aI75805
aI75985
aI76175
aI76251
aI76293
aI76743
aI77201
aI77364
aI77561
aI77667
aI77866
aI77893
aI78041
aI78105
aI78467
aI78469
aI78893
aI79057
aI79132
aI79139
aI79185
aI79224
aI79274
aI79293
aI79553
aI79592
aI79695
aI79702
aI79879
aI79895
aI80083
aI80124
aI80162
aI80219
aI80363
aI81132
aI81156
aI81229
aI81520
aI81564
aI81782
aI81834
aI82242
aI82461
aI82641
aI82744
aI82765
aI83349
aI83374
aI83613
aI84187
aI84414
aI84523
aI84942
aI84944
aI85020
aI85056
aI85131
aI85261
aI85334
aI85342
aI85354
aI85401
aI85414
aI85510
aI85796
aI86142
aI86190
aI86332
aI86628
aI86644
aI86815
aI86835
aI86880
aI86892
aI87192
aI87197
aI87222
aI87232
aI87430
aI87520
aI87529
aI87785
aI88125
aI88140
aI88327
aI88515
aI88699
aI88744
aI88812
aI89087
aI89190
aI89343
aI89745
aI89840
aI89862
aI90243
aI90249
aI90384
aI90403
aI90524
aI90600
aI90603
aI90717
aI90738
aI90746
aI90888
aI91273
aI91470
aI91483
aI91485
aI91500
aI91529
aI91535
aI91542
aI91630
aI91660
aI91842
aI91974
aI91976
aI92008
aI92198
aI92234
aI92264
aI92420
aI92507
aI92681
aI92938
aI93139
aI93297
aI93326
aI93363
aI93510
aI93563
aI93610
aI93766
aI93805
aI93838
aI94011
aI94018
aI94160
aI94405
aI94777
aI94780
aI94864
aI94985
aI95004
aI95145
aI95147
aI95149
aI95163
aI95165
aI95167
aI95182
aI95207
aI95473
aI95475
aI95497
aI95499
aI95510
aI95519
aI95771
aI95780
aI95796
aI95875
aI95965
aI96004
aI96007
aI96079
aI96417
aI96610
aI96691
aI96737
aI96861
aI97285
aI97470
aI97742
aI97757
aI97836
aI97950
aI98124
aI98239
aI98499
aI98503
aI98607
aI98623
aI98633
aI98961
aI99005
aI99112
aI99114
aI99728
aI99813
aI99910
aI100163
aI100304
aI100498
aI100579
aI100737
aI100906
aI101076
aI101112
aI101362
aI101423
aI101577
aI101864
aI102033
aI102084
aI102088
aI102123
aI102125
aI102338
aI102445
aI102716
aI102735
aI102749
aI102880
aI103042
aI103210
aI103228
aI103233
aI103249
aI103253
aI103339
aI103341
aI103366
aI103372
aI103384
aI103655
aI103772
aI103810
aI103883
aI104017
aI104129
aI104141
aI104241
aI104243
aI104419
aI104760
aI104837
aI104841
aI104913
aI104925
aI105020
aI105121
aI105585
aI105653
aI105954
aI106002
aI106072
aI106487
aI106491
aI106542
aI106785
aI106873
aI106927
aI107069
aI107159
aI107314
aI107406
aI107462
aI107723
aI107846
aI107953
aI107962
aI108090
aI108156
aI108188
aI108689
aI108795
aI108928
aI108932
aI108945
aI109241
aI109569
aI109578
aI109673
aI109850
aI109968
aI110102
aI110501
aI110541
aI110553
aI110781
aI110826
aI111146
aI111360
aI111362
aI111364
aI111659
aI111663
aI111759
aI111781
aI111785
aI111844
aI112006
aI112138
aI112171
aI112175
aI112326
aI112370
aI112818
aI112852
aI112897
aI112911
aI113278
aI113345
aI113348
aI113416
aI113573
aI114180
aI114246
aI114662
aI114795
aI114818
aI114935
aI115111
aI115149
aI115151
aI115210
aI115617
aI115727
aI116169
aI116419
aI116505
aI116529
aI116668
aI116887
aI117133
aI117466
aI117529
aI117630
aI117646
aI117867
aI117895
aI119141
aI119145
aI119218
aI119828
aI120466
aI120635
aI120637
aI120783
aI120799
aI120919
aI122490
aI122882
aI122886
aI122890
aI122892
aI122898
aI122900
aI122902
aI122904
aI122906
aI122912
aI122916
aI122918
aI122920
aI122922
aI122924
aI122926
aI123310
aI123553
aI126420
aI126430
aI127323
aI128488
aI128542
aI128842
aI128944
aI129229
aI129397
aI129657
aI129779
aI129937
aI130083
aI130490
aI130518
aI130578
aI130634
aI130842
aI131480
aI131714
aI131739
aI132046
aI132157
aI132362
aI132462
aI132618
aI132796
aI133195
aI133798
aI133802
aI133867
aI134170
aI134246
aI134368
aI134775
aI135137
aI135456
aI135518
aI135532
aI135536
aI135567
aI135569
aI135803
aI135815
aI136012
aI136020
aI136024
aI136297
aI136449
aI136800
aI136816
aI136859
aI136864
aI137859
aI137863
aI138036
aI138632
aI139130
aI139642
aI139859
aI140711
aI140737
aI140956
aI141400
aI141408
aI141544
aI142056
aI142420
aI142509
aI142550
aI143355
aI143472
aI144352
aI144522
aI145951
aI146309
aI146730
aI147382
aI147657
aI147662
aI149406
aI149612
aI149902
aI150401
aI150548
aI150993
aI151315
aI151479
aI151781
aI152079
aI152081
aI152591
aI155358
aI155509
aI156607
aI157172
aI157407
aI157432
aI157865
aI158035
aI158254
aI158402
aI158721
aI158874
aI158956
aI159093
aI159690
aI160080
aI160271
aI160341
aI160438
aI160527
aI160563
aI160565
aI160684
aI160730
aI160836
aI161032
aI161290
aI161354
aI161594
aI161918
aI162082
aI162350
aI162478
aI162968
aI163056
aI164226
aI164881
aI165347
aI165947
aI166528
aI166558
aI167370
aI167746
aI168026
aI168248
aI168252
aI168254
aI168456
aI168612
aI169982
aI169984
aI169992
aI170289
aI170297
aI170399
aI170705
aI170813
aI170817
aI170827
aI170875
aI170939
aI171763
aI171765
aI172637
aI172881
aI173145
aI173291
aI173307
aI174055
aI175569
aI175585
aI175661
aI176101
aI176935
aI177285
aI179401
aI179491
aI179819
aI182823
aI183611
aI183635
aI184053
aI184471
aI184641
aI184931
aI185435
aI185585
aI186587
aI187031
aI187541
aI187593
aI187595
aI188301
aI189333
aI189381
aI189547
aI191005
aI193565
aI193581
aI193587
asV(no genres listed)
p32
(lp33
I114335
aI122888
aI122896
aI129250
aI132084
aI134861
aI141131
aI141866
aI142456
aI143410
aI147250
aI149330
aI152037
aI155589
aI156605
aI159161
aI159779
aI161008
aI165489
aI166024
aI167570
aI169034
aI171495
aI171631
aI171749
aI171891
aI172497
aI172591
aI173535
aI174403
aI176601
aI181413
aI181719
aI182727
asVComedy
p34
(lp35
I1
aI3
aI4
aI5
aI7
aI11
aI12
aI18
aI19
aI20
aI21
aI38
aI39
aI45
aI52
aI54
aI58
aI63
aI64
aI65
aI68
aI69
aI70
aI72
aI75
aI82
aI87
aI88
aI93
aI94
aI96
aI101
aI102
aI104
aI106
aI107
aI112
aI118
aI119
aI122
aI125
aI129
aI135
aI141
aI144
aI145
aI153
aI156
aI157
aI166
aI171
aI174
aI176
aI178
aI180
aI183
aI186
aI187
aI189
aI194
aI195
aI203
aI205
aI212
aI216
aI218
aI223
aI224
aI228
aI231
aI232
aI234
aI235
aI236
aI237
aI239
aI243
aI248
aI250
aI252
aI255
aI256
aI258
aI267
aI272
aI274
aI275
aI276
aI278
aI281
aI287
aI289
aI294
aI295
aI296
aI304
aI305
aI308
aI310
aI312
aI317
aI319
aI322
aI324
aI325
aI327
aI333
aI339
aI342
aI344
aI345
aI348
aI351
aI352
aI355
aI356
aI357
aI359
aI360
aI361
aI367
aI368
aI370
aI371
aI372
aI374
aI378
aI380
aI387
aI410
aI413
aI414
aI415
aI417
aI419
aI420
aI429
aI430
aI432
aI433
aI435
aI437
aI438
aI440
aI441
aI444
aI445
aI449
aI450
aI453
aI460
aI466
aI467
aI468
aI470
aI471
aI472
aI473
aI476
aI478
aI485
aI486
aI487
aI489
aI492
aI496
aI497
aI499
aI500
aI505
aI513
aI514
aI516
aI518
aI520
aI528
aI532
aI539
aI542
aI543
aI546
aI550
aI552
aI562
aI564
aI567
aI568
aI569
aI574
aI575
aI583
aI585
aI586
aI587
aI588
aI597
aI600
aI608
aI612
aI615
aI617
aI618
aI619
aI626
aI633
aI634
aI635
aI637
aI639
aI649
aI656
aI663
aI665
aI671
aI673
aI674
aI688
aI691
aI700
aI708
aI709
aI710
aI718
aI719
aI720
aI725
aI728
aI743
aI745
aI747
aI750
aI762
aI765
aI778
aI784
aI785
aI788
aI799
aI801
aI803
aI804
aI810
aI813
aI818
aI829
aI830
aI833
aI837
aI838
aI840
aI842
aI852
aI861
aI867
aI870
aI876
aI881
aI886
aI892
aI898
aI899
aI901
aI905
aI907
aI909
aI910
aI911
aI914
aI915
aI916
aI921
aI927
aI934
aI935
aI936
aI937
aI945
aI946
aI947
aI950
aI951
aI952
aI955
aI969
aI970
aI973
aI984
aI988
aI994
aI1005
aI1007
aI1010
aI1011
aI1013
aI1014
aI1016
aI1018
aI1020
aI1021
aI1028
aI1034
aI1042
aI1057
aI1060
aI1064
aI1066
aI1073
aI1077
aI1078
aI1079
aI1080
aI1081
aI1083
aI1091
aI1107
aI1112
aI1120
aI1125
aI1126
aI1135
aI1136
aI1148
aI1151
aI1162
aI1167
aI1171
aI1173
aI1175
aI1180
aI1184
aI1188
aI1194
aI1197
aI1202
aI1215
aI1220
aI1223
aI1230
aI1234
aI1235
aI1236
aI1238
aI1241
aI1243
aI1244
aI1247
aI1255
aI1256
aI1257
aI1261
aI1265
aI1268
aI1269
aI1270
aI1271
aI1273
aI1277
aI1278
aI1279
aI1281
aI1285
aI1288
aI1292
aI1297
aI1300
aI1307
aI1318
aI1321
aI1353
aI1359
aI1367
aI1376
aI1378
aI1380
aI1381
aI1390
aI1391
aI1392
aI1394
aI1395
aI1396
aI1405
aI1407
aI1409
aI1414
aI1425
aI1429
aI1430
aI1431
aI1432
aI1439
aI1440
aI1441
aI1445
aI1446
aI1449
aI1453
aI1454
aI1456
aI1457
aI1460
aI1461
aI1468
aI1473
aI1474
aI1476
aI1484
aI1485
aI1490
aI1500
aI1503
aI1513
aI1516
aI1517
aI1526
aI1527
aI1529
aI1537
aI1541
aI1542
aI1546
aI1550
aI1564
aI1565
aI1566
aI1569
aI1571
aI1580
aI1581
aI1585
aI1588
aI1592
aI1593
aI1594
aI1602
aI1604
aI1612
aI1614
aI1629
aI1639
aI1641
aI1642
aI1646
aI1648
aI1663
aI1665
aI1677
aI1679
aI1682
aI1689
aI1699
aI1701
aI1702
aI1703
aI1707
aI1713
aI1717
aI1731
aI1732
aI1734
aI1739
aI1746
aI1747
aI1753
aI1755
aI1760
aI1772
aI1777
aI1784
aI1793
aI1794
aI1799
aI1806
aI1810
aI1812
aI1816
aI1821
aI1824
aI1825
aI1827
aI1836
aI1837
aI1839
aI1845
aI1848
aI1855
aI1857
aI1858
aI1863
aI1866
aI1870
aI1875
aI1883
aI1884
aI1885
aI1887
aI1888
aI1894
aI1895
aI1900
aI1904
aI1906
aI1907
aI1910
aI1911
aI1912
aI1914
aI1918
aI1919
aI1923
aI1934
aI1937
aI1948
aI1958
aI1963
aI1965
aI1966
aI1968
aI1993
aI2000
aI2001
aI2002
aI2003
aI2004
aI2005
aI2006
aI2007
aI2011
aI2012
aI2014
aI2015
aI2016
aI2027
aI2032
aI2035
aI2036
aI2037
aI2038
aI2040
aI2041
aI2042
aI2044
aI2050
aI2051
aI2052
aI2053
aI2054
aI2055
aI2059
aI2060
aI2065
aI2072
aI2073
aI2078
aI2080
aI2081
aI2082
aI2083
aI2088
aI2095
aI2098
aI2100
aI2102
aI2108
aI2109
aI2110
aI2111
aI2123
aI2124
aI2125
aI2133
aI2134
aI2136
aI2141
aI2144
aI2145
aI2148
aI2149
aI2150
aI2151
aI2152
aI2155
aI2156
aI2163
aI2164
aI2165
aI2169
aI2170
aI2171
aI2172
aI2174
aI2177
aI2184
aI2195
aI2205
aI2239
aI2241
aI2243
aI2244
aI2245
aI2247
aI2248
aI2249
aI2252
aI2253
aI2255
aI2257
aI2259
aI2261
aI2262
aI2264
aI2265
aI2266
aI2273
aI2282
aI2286
aI2289
aI2290
aI2292
aI2294
aI2295
aI2296
aI2300
aI2301
aI2302
aI2306
aI2315
aI2318
aI2321
aI2324
aI2325
aI2330
aI2331
aI2335
aI2339
aI2342
aI2349
aI2350
aI2352
aI2354
aI2355
aI2356
aI2359
aI2361
aI2369
aI2371
aI2372
aI2374
aI2375
aI2378
aI2379
aI2380
aI2381
aI2382
aI2383
aI2385
aI2387
aI2390
aI2392
aI2395
aI2396
aI2398
aI2405
aI2406
aI2407
aI2408
aI2413
aI2416
aI2417
aI2418
aI2423
aI2424
aI2431
aI2436
aI2447
aI2450
aI2457
aI2458
aI2463
aI2468
aI2469
aI2470
aI2471
aI2472
aI2473
aI2478
aI2482
aI2483
aI2485
aI2491
aI2492
aI2496
aI2498
aI2500
aI2502
aI2504
aI2506
aI2514
aI2518
aI2539
aI2542
aI2552
aI2555
aI2558
aI2567
aI2572
aI2574
aI2577
aI2580
aI2581
aI2582
aI2583
aI2586
aI2587
aI2589
aI2593
aI2596
aI2597
aI2598
aI2599
aI2606
aI2613
aI2617
aI2618
aI2622
aI2623
aI2629
aI2657
aI2659
aI2671
aI2681
aI2683
aI2690
aI2694
aI2696
aI2697
aI2699
aI2700
aI2701
aI2706
aI2709
aI2716
aI2717
aI2718
aI2720
aI2723
aI2724
aI2733
aI2735
aI2736
aI2738
aI2742
aI2746
aI2747
aI2748
aI2750
aI2751
aI2752
aI2759
aI2765
aI2766
aI2770
aI2772
aI2774
aI2779
aI2786
aI2788
aI2791
aI2792
aI2793
aI2794
aI2795
aI2796
aI2797
aI2798
aI2799
aI2804
aI2805
aI2806
aI2828
aI2829
aI2835
aI2836
aI2837
aI2843
aI2846
aI2857
aI2860
aI2861
aI2863
aI2865
aI2867
aI2870
aI2874
aI2879
aI2880
aI2883
aI2884
aI2886
aI2887
aI2888
aI2889
aI2890
aI2891
aI2897
aI2907
aI2915
aI2918
aI2924
aI2926
aI2931
aI2935
aI2936
aI2937
aI2946
aI2953
aI2961
aI2962
aI2968
aI2973
aI2975
aI2977
aI2978
aI2987
aI2997
aI3003
aI3004
aI3013
aI3014
aI3018
aI3022
aI3028
aI3031
aI3033
aI3034
aI3035
aI3039
aI3040
aI3041
aI3042
aI3043
aI3045
aI3046
aI3048
aI3051
aI3052
aI3057
aI3060
aI3061
aI3067
aI3070
aI3071
aI3072
aI3076
aI3079
aI3086
aI3087
aI3088
aI3096
aI3097
aI3099
aI3104
aI3108
aI3114
aI3120
aI3127
aI3129
aI3130
aI3132
aI3146
aI3157
aI3162
aI3163
aI3167
aI3174
aI3175
aI3177
aI3200
aI3208
aI3210
aI3225
aI3235
aI3240
aI3241
aI3243
aI3244
aI3247
aI3248
aI3253
aI3254
aI3255
aI3258
aI3261
aI3263
aI3264
aI3266
aI3268
aI3270
aI3273
aI3276
aI3284
aI3286
aI3299
aI3301
aI3302
aI3306
aI3307
aI3308
aI3310
aI3313
aI3317
aI3323
aI3324
aI3325
aI3326
aI3341
aI3353
aI3358
aI3359
aI3361
aI3363
aI3385
aI3387
aI3388
aI3391
aI3392
aI3393
aI3394
aI3395
aI3396
aI3397
aI3398
aI3402
aI3410
aI3417
aI3421
aI3422
aI3429
aI3438
aI3440
aI3446
aI3448
aI3450
aI3454
aI3462
aI3466
aI3473
aI3477
aI3481
aI3489
aI3492
aI3497
aI3500
aI3501
aI3504
aI3506
aI3507
aI3511
aI3515
aI3516
aI3521
aI3524
aI3525
aI3526
aI3531
aI3536
aI3537
aI3538
aI3543
aI3544
aI3548
aI3549
aI3552
aI3559
aI3564
aI3565
aI3566
aI3567
aI3568
aI3569
aI3571
aI3581
aI3590
aI3591
aI3596
aI3597
aI3599
aI3606
aI3608
aI3614
aI3616
aI3617
aI3618
aI3619
aI3622
aI3624
aI3626
aI3629
aI3632
aI3640
aI3646
aI3667
aI3669
aI3671
aI3674
aI3675
aI3685
aI3688
aI3689
aI3690
aI3691
aI3692
aI3693
aI3694
aI3695
aI3696
aI3705
aI3710
aI3712
aI3715
aI3716
aI3719
aI3739
aI3740
aI3743
aI3751
aI3752
aI3754
aI3760
aI3773
aI3774
aI3784
aI3785
aI3786
aI3787
aI3794
aI3809
aI3812
aI3814
aI3819
aI3821
aI3825
aI3827
aI3830
aI3831
aI3836
aI3841
aI3846
aI3851
aI3852
aI3858
aI3861
aI3862
aI3865
aI3868
aI3869
aI3873
aI3882
aI3884
aI3893
aI3898
aI3900
aI3901
aI3909
aI3911
aI3912
aI3922
aI3925
aI3928
aI3929
aI3943
aI3948
aI3953
aI3955
aI3962
aI3968
aI3971
aI3972
aI3977
aI3979
aI3988
aI3990
aI3991
aI3997
aI4002
aI4003
aI4010
aI4011
aI4012
aI4015
aI4016
aI4018
aI4023
aI4025
aI4027
aI4029
aI4032
aI4040
aI4053
aI4062
aI4063
aI4066
aI4068
aI4069
aI4079
aI4080
aI4081
aI4082
aI4084
aI4085
aI4089
aI4091
aI4102
aI4104
aI4115
aI4116
aI4121
aI4123
aI4125
aI4127
aI4128
aI4130
aI4131
aI4132
aI4135
aI4138
aI4141
aI4147
aI4149
aI4153
aI4156
aI4157
aI4158
aI4161
aI4168
aI4175
aI4181
aI4184
aI4191
aI4197
aI4204
aI4205
aI4214
aI4215
aI4219
aI4220
aI4221
aI4225
aI4228
aI4229
aI4231
aI4232
aI4233
aI4240
aI4242
aI4246
aI4247
aI4248
aI4254
aI4255
aI4267
aI4268
aI4270
aI4276
aI4280
aI4284
aI4285
aI4289
aI4290
aI4291
aI4293
aI4299
aI4306
aI4307
aI4317
aI4321
aI4333
aI4340
aI4343
aI4347
aI4349
aI4350
aI4356
aI4357
aI4359
aI4361
aI4368
aI4373
aI4374
aI4381
aI4386
aI4388
aI4392
aI4394
aI4395
aI4396
aI4397
aI4399
aI4402
aI4409
aI4410
aI4412
aI4428
aI4434
aI4442
aI4447
aI4451
aI4452
aI4462
aI4464
aI4467
aI4471
aI4474
aI4476
aI4477
aI4478
aI4483
aI4489
aI4490
aI4492
aI4495
aI4497
aI4499
aI4500
aI4502
aI4504
aI4509
aI4511
aI4516
aI4518
aI4520
aI4523
aI4524
aI4526
aI4527
aI4529
aI4533
aI4544
aI4545
aI4558
aI4562
aI4563
aI4571
aI4573
aI4578
aI4583
aI4584
aI4585
aI4587
aI4591
aI4593
aI4600
aI4602
aI4603
aI4605
aI4610
aI4613
aI4617
aI4619
aI4621
aI4622
aI4623
aI4624
aI4628
aI4634
aI4635
aI4639
aI4641
aI4642
aI4644
aI4646
aI4649
aI4653
aI4660
aI4662
aI4663
aI4666
aI4672
aI4673
aI4675
aI4676
aI4677
aI4678
aI4679
aI4681
aI4683
aI4686
aI4687
aI4697
aI4700
aI4701
aI4704
aI4705
aI4709
aI4714
aI4717
aI4718
aI4719
aI4721
aI4722
aI4728
aI4732
aI4733
aI4734
aI4736
aI4740
aI4741
aI4743
aI4748
aI4749
aI4757
aI4759
aI4773
aI4774
aI4777
aI4782
aI4789
aI4795
aI4796
aI4798
aI4799
aI4802
aI4804
aI4816
aI4818
aI4822
aI4823
aI4825
aI4828
aI4831
aI4844
aI4845
aI4846
aI4849
aI4860
aI4863
aI4867
aI4877
aI4879
aI4886
aI4890
aI4898
aI4899
aI4900
aI4909
aI4911
aI4925
aI4926
aI4929
aI4952
aI4954
aI4956
aI4971
aI4973
aI4974
aI4979
aI4980
aI4981
aI4989
aI4990
aI4991
aI4992
aI4994
aI5004
aI5007
aI5013
aI5021
aI5025
aI5027
aI5047
aI5048
aI5049
aI5051
aI5053
aI5060
aI5074
aI5075
aI5076
aI5077
aI5080
aI5083
aI5088
aI5092
aI5095
aI5096
aI5102
aI5103
aI5106
aI5110
aI5113
aI5116
aI5120
aI5121
aI5131
aI5134
aI5135
aI5139
aI5151
aI5159
aI5168
aI5170
aI5187
aI5205
aI5213
aI5214
aI5218
aI5220
aI5222
aI5231
aI5241
aI5246
aI5247
aI5248
aI5250
aI5255
aI5265
aI5278
aI5279
aI5283
aI5284
aI5285
aI5292
aI5296
aI5298
aI5299
aI5303
aI5307
aI5308
aI5309
aI5321
aI5324
aI5334
aI5337
aI5339
aI5348
aI5353
aI5363
aI5375
aI5377
aI5380
aI5382
aI5397
aI5401
aI5414
aI5415
aI5416
aI5419
aI5422
aI5427
aI5428
aI5437
aI5438
aI5442
aI5443
aI5448
aI5449
aI5450
aI5451
aI5452
aI5454
aI5455
aI5456
aI5458
aI5459
aI5460
aI5461
aI5462
aI5466
aI5470
aI5478
aI5480
aI5481
aI5485
aI5486
aI5490
aI5493
aI5497
aI5500
aI5501
aI5503
aI5505
aI5508
aI5512
aI5513
aI5523
aI5525
aI5529
aI5530
aI5532
aI5541
aI5548
aI5553
aI5560
aI5568
aI5572
aI5573
aI5577
aI5581
aI5582
aI5584
aI5585
aI5589
aI5591
aI5596
aI5597
aI5602
aI5603
aI5604
aI5607
aI5610
aI5613
aI5617
aI5620
aI5621
aI5628
aI5636
aI5650
aI5651
aI5657
aI5665
aI5666
aI5670
aI5673
aI5675
aI5678
aI5685
aI5693
aI5694
aI5706
aI5710
aI5720
aI5723
aI5742
aI5745
aI5752
aI5767
aI5768
aI5773
aI5780
aI5785
aI5792
aI5796
aI5801
aI5802
aI5803
aI5804
aI5829
aI5836
aI5840
aI5849
aI5856
aI5863
aI5874
aI5879
aI5884
aI5890
aI5896
aI5900
aI5902
aI5909
aI5912
aI5927
aI5929
aI5938
aI5941
aI5942
aI5943
aI5945
aI5957
aI5968
aI5969
aI5970
aI5990
aI5991
aI6001
aI6003
aI6005
aI6006
aI6012
aI6013
aI6014
aI6020
aI6023
aI6025
aI6030
aI6033
aI6036
aI6039
aI6060
aI6067
aI6090
aI6100
aI6104
aI6116
aI6119
aI6122
aI6124
aI6125
aI6141
aI6143
aI6153
aI6155
aI6156
aI6166
aI6182
aI6183
aI6188
aI6193
aI6202
aI6203
aI6204
aI6210
aI6212
aI6218
aI6223
aI6228
aI6238
aI6241
aI6245
aI6249
aI6252
aI6254
aI6265
aI6266
aI6268
aI6271
aI6286
aI6287
aI6295
aI6296
aI6297
aI6298
aI6300
aI6308
aI6310
aI6313
aI6314
aI6315
aI6316
aI6319
aI6320
aI6324
aI6332
aI6338
aI6339
aI6342
aI6344
aI6345
aI6357
aI6358
aI6367
aI6370
aI6373
aI6374
aI6376
aI6377
aI6387
aI6402
aI6407
aI6408
aI6410
aI6412
aI6415
aI6424
aI6425
aI6428
aI6442
aI6464
aI6480
aI6482
aI6493
aI6503
aI6523
aI6528
aI6533
aI6535
aI6539
aI6542
aI6548
aI6549
aI6550
aI6551
aI6554
aI6557
aI6558
aI6559
aI6560
aI6561
aI6563
aI6564
aI6567
aI6568
aI6572
aI6573
aI6578
aI6579
aI6581
aI6582
aI6584
aI6586
aI6587
aI6593
aI6596
aI6604
aI6614
aI6616
aI6618
aI6619
aI6620
aI6625
aI6628
aI6636
aI6638
aI6650
aI6658
aI6659
aI6662
aI6663
aI6666
aI6670
aI6686
aI6687
aI6688
aI6689
aI6696
aI6702
aI6705
aI6708
aI6710
aI6711
aI6718
aI6720
aI6724
aI6732
aI6734
aI6744
aI6750
aI6753
aI6755
aI6763
aI6764
aI6765
aI6769
aI6773
aI6776
aI6782
aI6783
aI6785
aI6788
aI6793
aI6794
aI6798
aI6804
aI6807
aI6811
aI6812
aI6814
aI6816
aI6821
aI6827
aI6837
aI6850
aI6853
aI6863
aI6867
aI6873
aI6881
aI6888
aI6893
aI6902
aI6912
aI6936
aI6942
aI6944
aI6949
aI6951
aI6954
aI6957
aI6958
aI6970
aI6974
aI6978
aI6990
aI6992
aI6993
aI6994
aI6999
aI7000
aI7004
aI7005
aI7007
aI7012
aI7015
aI7019
aI7020
aI7023
aI7026
aI7028
aI7033
aI7036
aI7037
aI7041
aI7046
aI7048
aI7049
aI7050
aI7051
aI7053
aI7055
aI7057
aI7058
aI7067
aI7073
aI7074
aI7075
aI7082
aI7084
aI7085
aI7086
aI7089
aI7091
aI7093
aI7101
aI7102
aI7103
aI7104
aI7107
aI7117
aI7121
aI7122
aI7132
aI7137
aI7149
aI7150
aI7155
aI7161
aI7169
aI7173
aI7191
aI7193
aI7206
aI7209
aI7211
aI7212
aI7222
aI7228
aI7235
aI7247
aI7255
aI7257
aI7258
aI7260
aI7261
aI7262
aI7264
aI7266
aI7282
aI7292
aI7293
aI7294
aI7297
aI7304
aI7306
aI7308
aI7312
aI7315
aI7316
aI7317
aI7319
aI7323
aI7325
aI7340
aI7344
aI7345
aI7346
aI7352
aI7354
aI7364
aI7366
aI7367
aI7369
aI7375
aI7380
aI7381
aI7394
aI7395
aI7411
aI7414
aI7419
aI7444
aI7448
aI7450
aI7451
aI7457
aI7460
aI7541
aI7579
aI7584
aI7620
aI7647
aI7657
aI7701
aI7705
aI7706
aI7707
aI7708
aI7716
aI7720
aI7727
aI7730
aI7781
aI7815
aI7826
aI7831
aI7832
aI7833
aI7834
aI7835
aI7839
aI7840
aI7843
aI7844
aI7845
aI7846
aI7879
aI7884
aI7888
aI7916
aI7920
aI7934
aI7983
aI7988
aI7993
aI8012
aI8024
aI8033
aI8043
aI8117
aI8121
aI8131
aI8169
aI8183
aI8189
aI8190
aI8196
aI8232
aI8235
aI8238
aI8239
aI8241
aI8253
aI8254
aI8270
aI8275
aI8293
aI8302
aI8331
aI8336
aI8360
aI8362
aI8363
aI8366
aI8370
aI8372
aI8373
aI8376
aI8380
aI8382
aI8383
aI8385
aI8387
aI8391
aI8402
aI8425
aI8426
aI8427
aI8454
aI8464
aI8487
aI8511
aI8512
aI8526
aI8528
aI8529
aI8531
aI8542
aI8571
aI8574
aI8575
aI8578
aI8580
aI8596
aI8601
aI8604
aI8605
aI8609
aI8610
aI8611
aI8614
aI8620
aI8623
aI8632
aI8633
aI8641
aI8643
aI8685
aI8690
aI8695
aI8711
aI8712
aI8720
aI8738
aI8748
aI8784
aI8796
aI8799
aI8807
aI8808
aI8809
aI8814
aI8827
aI8864
aI8866
aI8869
aI8874
aI8907
aI8910
aI8912
aI8916
aI8917
aI8918
aI8919
aI8928
aI8933
aI8934
aI8943
aI8946
aI8948
aI8949
aI8961
aI8967
aI8968
aI8969
aI8974
aI8978
aI8984
aI8989
aI25750
aI25752
aI25769
aI25782
aI25795
aI25805
aI25826
aI25827
aI25850
aI25870
aI25887
aI25905
aI25947
aI25952
aI25959
aI26038
aI26084
aI26095
aI26133
aI26147
aI26152
aI26158
aI26171
aI26183
aI26184
aI26198
aI26225
aI26236
aI26249
aI26265
aI26285
aI26313
aI26340
aI26347
aI26375
aI26386
aI26413
aI26422
aI26429
aI26444
aI26471
aI26527
aI26547
aI26555
aI26567
aI26593
aI26599
aI26629
aI26645
aI26676
aI26680
aI26686
aI26700
aI26726
aI26732
aI26741
aI26745
aI26765
aI26776
aI26778
aI26792
aI26828
aI26838
aI26840
aI26861
aI26870
aI26871
aI26900
aI26928
aI26940
aI27008
aI27032
aI27075
aI27178
aI27193
aI27251
aI27306
aI27320
aI27328
aI27368
aI27369
aI27370
aI27416
aI27420
aI27426
aI27473
aI27478
aI27523
aI27537
aI27539
aI27549
aI27555
aI27563
aI27584
aI27595
aI27619
aI27644
aI27674
aI27683
aI27685
aI27692
aI27695
aI27706
aI27716
aI27762
aI27790
aI27808
aI27826
aI27899
aI30745
aI30793
aI30810
aI30822
aI30825
aI30883
aI30898
aI30994
aI31000
aI31049
aI31083
aI31114
aI31123
aI31162
aI31223
aI31297
aI31367
aI31422
aI31433
aI31445
aI31664
aI31685
aI31692
aI31694
aI31698
aI31700
aI31851
aI31867
aI31878
aI31909
aI31921
aI31923
aI31925
aI31952
aI32009
aI32017
aI32019
aI32031
aI32116
aI32160
aI32243
aI32289
aI32291
aI32296
aI32298
aI32300
aI32314
aI32392
aI32440
aI32442
aI32456
aI32460
aI32469
aI32589
aI32596
aI32598
aI32620
aI32659
aI32666
aI32862
aI32875
aI32917
aI33004
aI33090
aI33126
aI33138
aI33145
aI33148
aI33188
aI33312
aI33495
aI33499
aI33564
aI33615
aI33629
aI33646
aI33649
aI33669
aI33672
aI33679
aI33725
aI33779
aI33815
aI33826
aI33830
aI33836
aI33880
aI33893
aI33903
aI33966
aI34018
aI34129
aI34162
aI34164
aI34312
aI34321
aI34332
aI34336
aI34338
aI34359
aI34437
aI34450
aI34520
aI34523
aI34528
aI34530
aI34540
aI34800
aI35807
aI35836
aI36289
aI36363
aI36397
aI36401
aI36477
aI36525
aI36535
aI36537
aI36708
aI36850
aI37211
aI37384
aI37444
aI37477
aI37729
aI37844
aI38038
aI38061
aI38798
aI38886
aI39231
aI39414
aI39444
aI39449
aI39715
aI39801
aI40339
aI40491
aI40581
aI40597
aI40946
aI40955
aI40959
aI40962
aI41573
aI41712
aI41716
aI41769
aI41828
aI42002
aI42004
aI42007
aI42009
aI42011
aI42013
aI42015
aI42018
aI42638
aI42725
aI42732
aI42734
aI42740
aI42761
aI42946
aI43289
aI43419
aI43460
aI43558
aI43560
aI43684
aI43708
aI43744
aI43836
aI43869
aI43919
aI43930
aI44004
aI44022
aI44193
aI44195
aI44197
aI44225
aI44238
aI44241
aI44243
aI44399
aI44694
aI44773
aI44777
aI44828
aI44840
aI44851
aI44864
aI44889
aI44972
aI45028
aI45074
aI45106
aI45175
aI45183
aI45208
aI45221
aI45431
aI45440
aI45501
aI45517
aI45648
aI45666
aI45672
aI45720
aI45726
aI45728
aI45732
aI45969
aI46062
aI46105
aI46337
aI46574
aI46578
aI46772
aI46865
aI46965
aI46967
aI46970
aI46972
aI46976
aI47122
aI47124
aI47384
aI47404
aI47491
aI47516
aI47518
aI47538
aI47640
aI47725
aI47736
aI47774
aI47937
aI47970
aI47997
aI48032
aI48045
aI48082
aI48322
aI48342
aI48385
aI48414
aI48416
aI48520
aI48560
aI48593
aI48678
aI48744
aI48982
aI49013
aI49110
aI49130
aI49220
aI49263
aI49274
aI49276
aI49284
aI49286
aI49396
aI49647
aI49735
aI49957
aI50189
aI50354
aI50356
aI50610
aI50685
aI50792
aI50798
aI50802
aI50806
aI50842
aI50942
aI50954
aI50999
aI51082
aI51084
aI51088
aI51255
aI51498
aI51545
aI51575
aI51705
aI51709
aI51903
aI51939
aI52245
aI52279
aI52287
aI52435
aI52462
aI52668
aI52694
aI52715
aI52724
aI52730
aI52867
aI52973
aI52975
aI53022
aI53121
aI53125
aI53140
aI53161
aI53318
aI53355
aI53450
aI53460
aI53468
aI53574
aI53578
aI53808
aI53956
aI53974
aI53993
aI54004
aI54256
aI54259
aI54272
aI54276
aI54281
aI54503
aI54617
aI54648
aI54732
aI54734
aI54745
aI54768
aI54780
aI54796
aI54908
aI54910
aI54934
aI54999
aI55020
aI55112
aI55116
aI55190
aI55207
aI55241
aI55245
aI55250
aI55261
aI55267
aI55269
aI55280
aI55292
aI55294
aI55451
aI55553
aI55729
aI55768
aI55830
aI55844
aI56003
aI56012
aI56060
aI56152
aI56176
aI56251
aI56333
aI56367
aI56587
aI56788
aI56805
aI56837
aI56869
aI56908
aI56941
aI56949
aI57243
aI57421
aI57504
aI57522
aI57532
aI57536
aI57669
aI57910
aI57951
aI58047
aI58156
aI58162
aI58291
aI58299
aI58315
aI58347
aI58655
aI58806
aI58839
aI58870
aI58972
aI58998
aI59014
aI59022
aI59026
aI59103
aI59118
aI59126
aI59141
aI59143
aI59220
aI59258
aI59333
aI59421
aI59429
aI59615
aI59667
aI59725
aI59784
aI59814
aI59900
aI59947
aI59985
aI60074
aI60126
aI60128
aI60141
aI60161
aI60289
aI60293
aI60363
aI60365
aI60397
aI60408
aI60487
aI60516
aI60522
aI60737
aI60756
aI60904
aI60950
aI61024
aI61071
aI61123
aI61132
aI61246
aI61250
aI61255
aI61323
aI61348
aI61394
aI61401
aI61729
aI62008
aI62113
aI62155
aI62336
aI62434
aI62439
aI62511
aI62586
aI62718
aI62956
aI62999
aI63131
aI63393
aI63479
aI63540
aI63859
aI64032
aI64116
aI64249
aI64285
aI64969
aI65088
aI65126
aI65133
aI65135
aI65230
aI65577
aI65585
aI65588
aI65738
aI65740
aI65802
aI66203
aI66240
aI66297
aI66427
aI66509
aI66511
aI66665
aI66785
aI66798
aI66934
aI66943
aI67087
aI67168
aI67267
aI67295
aI67534
aI67618
aI67695
aI67734
aI67788
aI67888
aI67997
aI68073
aI68135
aI68205
aI68444
aI68480
aI68600
aI68659
aI68793
aI68848
aI68886
aI68952
aI69069
aI69122
aI69211
aI69224
aI69227
aI69275
aI69278
aI69304
aI69406
aI69436
aI69604
aI69606
aI69644
aI69685
aI69720
aI69757
aI69784
aI69988
aI70183
aI70293
aI70334
aI70545
aI70565
aI70641
aI70663
aI70687
aI70728
aI70932
aI70984
aI71106
aI71156
aI71205
aI71211
aI71248
aI71268
aI71302
aI71429
aI71464
aI71466
aI71494
aI71500
aI71518
aI71520
aI71535
aI71550
aI71668
aI71732
aI71899
aI71970
aI72142
aI72165
aI72171
aI72178
aI72224
aI72226
aI72356
aI72601
aI72692
aI72696
aI72701
aI72919
aI73015
aI73042
aI73106
aI73160
aI73266
aI73319
aI73431
aI73501
aI73515
aI73569
aI73676
aI73681
aI73804
aI73822
aI73858
aI73881
aI74075
aI74154
aI74275
aI74342
aI74450
aI74532
aI74580
aI74647
aI74683
aI74698
aI74727
aI74754
aI74916
aI74946
aI75803
aI75805
aI75813
aI75816
aI76060
aI76077
aI76173
aI76251
aI76293
aI76301
aI76743
aI77191
aI77206
aI77233
aI77421
aI77455
aI77667
aI77688
aI77800
aI77841
aI77931
aI78034
aI78041
aI78116
aI78142
aI78160
aI78174
aI78209
aI78264
aI78469
aI78499
aI78544
aI78620
aI78626
aI78637
aI78703
aI79008
aI79091
aI79134
aI79139
aI79185
aI79242
aI79299
aI79333
aI79428
aI79572
aI79590
aI79592
aI79684
aI79702
aI79897
aI79946
aI80139
aI80166
aI80219
aI80241
aI80549
aI80572
aI80584
aI80586
aI80693
aI80727
aI80858
aI80860
aI80864
aI81132
aI81156
aI81229
aI81383
aI81537
aI81564
aI81784
aI81831
aI81847
aI81949
aI82053
aI82167
aI82242
aI82366
aI82499
aI82765
aI82848
aI82852
aI82854
aI83134
aI83177
aI83270
aI83349
aI83910
aI83969
aI83976
aI84246
aI84374
aI84512
aI84523
aI84553
aI84615
aI84637
aI84696
aI84716
aI84772
aI84847
aI84944
aI84950
aI85022
aI85179
aI85261
aI85295
aI85334
aI85367
aI85399
aI85401
aI85565
aI85780
aI85881
aI86000
aI86014
aI86028
aI86059
aI86066
aI86286
aI86290
aI86293
aI86295
aI86298
aI86345
aI86347
aI86377
aI86817
aI86833
aI86882
aI86911
aI86922
aI87192
aI87194
aI87197
aI87222
aI87234
aI87298
aI87413
aI87444
aI87483
aI87485
aI87522
aI87529
aI87834
aI87867
aI87869
aI87876
aI88069
aI88108
aI88163
aI88235
aI88267
aI88345
aI88356
aI88405
aI88448
aI88672
aI88746
aI88785
aI88812
aI88911
aI88954
aI89030
aI89305
aI89388
aI89864
aI89898
aI89904
aI89939
aI90343
aI90430
aI90522
aI90576
aI90647
aI90717
aI90890
aI91077
aI91094
aI91128
aI91233
aI91266
aI91323
aI91337
aI91353
aI91355
aI91386
aI91414
aI91542
aI91622
aI91628
aI91653
aI91666
aI91671
aI91688
aI91690
aI91784
aI91873
aI91947
aI92046
aI92259
aI92264
aI92348
aI92427
aI92494
aI92535
aI92643
aI92665
aI92681
aI93006
aI93008
aI93022
aI93114
aI93134
aI93270
aI93287
aI93320
aI93326
aI93443
aI93510
aI93512
aI93723
aI93740
aI93805
aI93831
aI93840
aI93855
aI93980
aI94015
aI94070
aI94150
aI94266
aI94323
aI94478
aI94503
aI94661
aI94677
aI94777
aI94833
aI94896
aI94953
aI94959
aI95067
aI95088
aI95105
aI95135
aI95199
aI95201
aI95307
aI95309
aI95311
aI95313
aI95377
aI95441
aI95543
aI95690
aI95720
aI95744
aI95843
aI95858
aI95873
aI95939
aI95949
aI96110
aI96121
aI96281
aI96283
aI96430
aI96448
aI96530
aI96588
aI96608
aI96616
aI96655
aI96726
aI96935
aI96945
aI96975
aI97172
aI97225
aI97306
aI97328
aI97665
aI97757
aI97836
aI97858
aI97904
aI97913
aI97921
aI98083
aI98160
aI98175
aI98230
aI98279
aI98491
aI98499
aI98503
aI98623
aI98633
aI98697
aI98799
aI98836
aI98908
aI99007
aI99030
aI99087
aI99106
aI99122
aI99130
aI99415
aI99437
aI99636
aI99638
aI99764
aI99853
aI100068
aI100083
aI100159
aI100194
aI100226
aI100326
aI100390
aI100507
aI100611
aI100843
aI100882
aI101072
aI101074
aI101142
aI101283
aI101415
aI101423
aI101529
aI101612
aI101765
aI102033
aI102070
aI102123
aI102165
aI102217
aI102378
aI102481
aI102602
aI102666
aI102686
aI102747
aI102760
aI102800
aI102993
aI103027
aI103048
aI103085
aI103141
aI103171
aI103221
aI103245
aI103335
aI103341
aI103372
aI103502
aI103539
aI103543
aI103602
aI103606
aI103609
aI103655
aI103755
aI103801
aI103810
aI103819
aI103865
aI103883
aI103984
aI104069
aI104076
aI104078
aI104211
aI104218
aI104241
aI104245
aI104339
aI104644
aI104863
aI104875
aI104906
aI104925
aI105020
aI105037
aI105211
aI105213
aI105254
aI105325
aI105468
aI105540
aI105593
aI105720
aI105835
aI106062
aI106330
aI106438
aI106540
aI106542
aI106594
aI106696
aI106782
aI106883
aI106918
aI106927
aI107141
aI107338
aI107348
aI107408
aI107412
aI107447
aI107449
aI107565
aI107630
aI107702
aI107951
aI108078
aI108156
aI108540
aI108715
aI108932
aI109042
aI109183
aI109241
aI109313
aI109317
aI109372
aI109374
aI109383
aI109416
aI109483
aI109576
aI109846
aI109853
aI109864
aI109895
aI109941
aI109971
aI110130
aI110281
aI110297
aI110541
aI110586
aI110655
aI110669
aI110718
aI110746
aI110771
aI110773
aI110781
aI111113
aI111146
aI111320
aI111375
aI111443
aI111617
aI111622
aI111663
aI111680
aI111743
aI111795
aI111800
aI112138
aI112183
aI112303
aI112421
aI112450
aI112460
aI112497
aI112580
aI112749
aI112788
aI113159
aI113225
aI113252
aI113275
aI113348
aI113374
aI113394
aI113453
aI113532
aI113829
aI114028
aI114265
aI114601
aI114670
aI114678
aI114762
aI114818
aI115111
aI115122
aI115231
aI115502
aI115617
aI115667
aI115819
aI115877
aI116044
aI116413
aI116419
aI116505
aI116668
aI116718
aI116724
aI116738
aI116799
aI116817
aI116849
aI116897
aI116941
aI116963
aI116977
aI116985
aI117109
aI117368
aI117511
aI117572
aI117590
aI117630
aI117646
aI117849
aI117851
aI117887
aI118082
aI118166
aI118270
aI118512
aI118530
aI118572
aI118814
aI118834
aI118862
aI118888
aI118924
aI118930
aI118997
aI119068
aI119141
aI119145
aI119153
aI119155
aI119714
aI119964
aI120138
aI120807
aI120813
aI120919
aI121097
aI121129
aI121338
aI121342
aI121372
aI121374
aI121469
aI121715
aI121781
aI122092
aI122246
aI122904
aI122932
aI123200
aI124273
aI124404
aI124484
aI125914
aI125970
aI125974
aI126088
aI126548
aI126577
aI126921
aI127052
aI127098
aI127130
aI127134
aI127194
aI127198
aI127204
aI127298
aI127390
aI128087
aI128089
aI128097
aI128099
aI128197
aI128366
aI128520
aI128594
aI128832
aI128852
aI128908
aI128914
aI128944
aI128968
aI128975
aI128991
aI129011
aI129313
aI129354
aI129428
aI129514
aI129737
aI130087
aI130452
aI130498
aI130518
aI130520
aI130686
aI130970
aI130978
aI131013
aI131098
aI131104
aI131130
aI131237
aI131578
aI131610
aI131656
aI131749
aI131826
aI131920
aI131934
aI132153
aI132157
aI132422
aI132454
aI132488
aI132496
aI132584
aI132660
aI132800
aI132888
aI133217
aI133281
aI133419
aI133545
aI133712
aI133716
aI133771
aI133780
aI133798
aI133867
aI133879
aI134004
aI134021
aI134041
aI134109
aI134170
aI134184
aI134252
aI134326
aI134334
aI134368
aI134393
aI134528
aI134783
aI134808
aI134847
aI134849
aI134853
aI135137
aI135198
aI135216
aI135436
aI135534
aI135777
aI135861
aI135885
aI135887
aI135937
aI136016
aI136341
aI136353
aI136355
aI136359
aI136443
aI136445
aI136447
aI136469
aI136471
aI136503
aI136511
aI136540
aI136598
aI136666
aI136778
aI136816
aI136838
aI136840
aI137595
aI138036
aI138204
aI138396
aI138546
aI138702
aI138798
aI138835
aI139157
aI139855
aI139915
aI139994
aI140038
aI140110
aI140133
aI140265
aI140289
aI140301
aI140481
aI140523
aI140541
aI140561
aI140711
aI140816
aI140928
aI141408
aI141513
aI141646
aI141718
aI141799
aI141810
aI141816
aI141818
aI141820
aI141830
aI141836
aI141844
aI141928
aI141994
aI142020
aI142196
aI142372
aI142422
aI142444
aI142550
aI142558
aI142602
aI142831
aI142961
aI142997
aI143031
aI143257
aI143525
aI143559
aI143859
aI143969
aI144222
aI144262
aI144478
aI144606
aI144620
aI144716
aI144734
aI145150
aI145491
aI145935
aI145994
aI146024
aI146210
aI146244
aI146662
aI146684
aI146986
aI147142
aI147196
aI147282
aI147410
aI147936
aI148238
aI148424
aI148592
aI148632
aI148652
aI148667
aI148775
aI148881
aI148888
aI148956
aI149011
aI149350
aI149352
aI149354
aI149508
aI149566
aI149830
aI150554
aI150596
aI150604
aI150993
aI151311
aI151315
aI151317
aI151455
aI151653
aI151739
aI152081
aI152083
aI152091
aI152105
aI152970
aI153070
aI153386
aI153408
aI154065
aI154975
aI155168
aI155509
aI155659
aI155743
aI155812
aI155820
aI155892
aI156025
aI156371
aI156553
aI156609
aI156781
aI156783
aI157108
aI157110
aI157270
aI157296
aI157312
aI157340
aI157369
aI157775
aI157865
aI158022
aI158035
aI158254
aI158398
aI158721
aI158872
aI158882
aI159069
aI159077
aI159093
aI159193
aI159415
aI159441
aI159690
aI159755
aI159849
aI160080
aI160271
aI160567
aI160569
aI161024
aI161131
aI161580
aI161922
aI162344
aI162478
aI162590
aI163527
aI163653
aI163925
aI164200
aI164226
aI164375
aI164647
aI164707
aI164909
aI165103
aI165139
aI165343
aI165483
aI165639
aI165645
aI165947
aI165959
aI166015
aI166461
aI166492
aI167018
aI167036
aI167380
aI167634
aI167732
aI167746
aI167772
aI167790
aI167854
aI168144
aI168174
aI168326
aI168418
aI168632
aI168846
aI169912
aI170357
aI170399
aI170401
aI170411
aI170551
aI170777
aI170813
aI170817
aI170837
aI170897
aI170937
aI170939
aI170957
aI170993
aI171695
aI171751
aI171811
aI171867
aI172215
aI172229
aI172253
aI172321
aI172547
aI172577
aI172637
aI173205
aI173209
aI173253
aI173255
aI173351
aI173619
aI173963
aI174045
aI174551
aI174681
aI174737
aI174815
aI174909
aI175431
aI175475
aI175577
aI175661
aI175693
aI175705
aI175743
aI175781
aI176101
aI176329
aI176389
aI176415
aI176621
aI176805
aI177185
aI177615
aI178613
aI178615
aI178827
aI179073
aI179119
aI179211
aI179427
aI179749
aI179953
aI180231
aI180297
aI180987
aI181065
aI181139
aI181659
aI182293
aI182297
aI182299
aI182731
aI182749
aI183197
aI183227
aI183317
aI183611
aI183897
aI183911
aI183959
aI184015
aI184349
aI184791
aI184997
aI185435
aI185473
aI187593
aI188189
aI188301
aI188751
aI188797
aI188833
aI189043
aI189713
aI190209
aI191005
aI193565
aI193571
aI193581
aI193583
aI193609
asVDocumentary
p36
(lp37
I77
aI99
aI108
aI116
aI128
aI137
aI162
aI206
aI246
aI363
aI556
aI581
aI602
aI722
aI759
aI791
aI1050
aI1111
aI1123
aI1144
aI1147
aI1189
aI1191
aI1192
aI1289
aI1310
aI1361
aI1649
aI1652
aI1797
aI1827
aI1856
aI2064
aI2323
aI2330
aI2494
aI2538
aI2659
aI2677
aI2693
aI2813
aI2824
aI2859
aI2930
aI2984
aI3002
aI3007
aI3077
aI3142
aI3182
aI3281
aI3303
aI3327
aI3338
aI3539
aI3609
aI3625
aI3653
aI3677
aI3679
aI3680
aI3859
aI3865
aI3989
aI4102
aI4171
aI4217
aI4236
aI4237
aI4278
aI4304
aI4350
aI4445
aI4453
aI4458
aI4459
aI4711
aI4769
aI4783
aI4864
aI4961
aI5059
aI5137
aI5224
aI5239
aI5288
aI5325
aI5385
aI5483
aI5513
aI5619
aI5643
aI5669
aI5670
aI5684
aI5735
aI5736
aI5785
aI5820
aI5932
aI6005
aI6042
aI6062
aI6122
aI6123
aI6125
aI6195
aI6269
aI6289
aI6299
aI6306
aI6327
aI6331
aI6368
aI6375
aI6380
aI6400
aI6408
aI6433
aI6453
aI6598
aI6612
aI6667
aI6679
aI6692
aI6772
aI6775
aI6780
aI6869
aI6935
aI6938
aI6945
aI6948
aI6962
aI6963
aI6965
aI7096
aI7124
aI7141
aI7156
aI7171
aI7225
aI7256
aI7440
aI7443
aI7566
aI7786
aI7932
aI7979
aI8011
aI8264
aI8375
aI8464
aI8577
aI8581
aI8582
aI8587
aI8622
aI8753
aI8755
aI8827
aI8938
aI8954
aI8979
aI8987
aI8998
aI9018
aI26003
aI26176
aI26195
aI26366
aI26471
aI26524
aI26712
aI26729
aI26797
aI27002
aI27176
aI27329
aI27820
aI27829
aI27846
aI27850
aI27873
aI27878
aI27879
aI27882
aI27899
aI27912
aI30892
aI32022
aI32302
aI32314
aI32582
aI33154
aI33435
aI33639
aI33677
aI33838
aI34072
aI34153
aI34338
aI34542
aI37240
aI38198
aI38304
aI41724
aI42602
aI43708
aI44511
aI44633
aI44788
aI44943
aI45928
aI45950
aI46105
aI46347
aI46850
aI47999
aI48262
aI48322
aI48698
aI48741
aI49132
aI49263
aI49265
aI49917
aI50658
aI50740
aI50851
aI52299
aI52767
aI52784
aI53024
aI53883
aI53894
aI54185
aI54354
aI54881
aI55071
aI55156
aI55620
aI55687
aI56012
aI56379
aI56563
aI58191
aI58309
aI58376
aI58425
aI58879
aI59126
aI59143
aI59295
aI59731
aI60291
aI60333
aI60766
aI61236
aI61257
aI62662
aI64278
aI65188
aI65225
aI66320
aI67665
aI68522
aI68536
aI69529
aI69953
aI70687
aI70862
aI71131
aI71282
aI71453
aI71462
aI71640
aI72714
aI74226
aI74677
aI74696
aI75947
aI76054
aI76738
aI76751
aI77177
aI77233
aI77455
aI78746
aI79006
aI79073
aI79677
aI80139
aI80478
aI80862
aI80906
aI81156
aI81158
aI81191
aI81910
aI82857
aI83827
aI84156
aI84273
aI85394
aI85774
aI86237
aI86279
aI86290
aI86504
aI86593
aI86668
aI87287
aI87960
aI88094
aI89090
aI89386
aI90245
aI90630
aI90769
aI90863
aI90943
aI91860
aI91869
aI92475
aI92494
aI93040
aI93721
aI94122
aI94130
aI94735
aI95218
aI96150
aI96411
aI96488
aI96563
aI96606
aI97168
aI97194
aI97230
aI97757
aI97866
aI98083
aI98122
aI99846
aI100044
aI100106
aI100553
aI100556
aI102590
aI102742
aI102823
aI102852
aI103107
aI103602
aI104272
aI105250
aI105746
aI106889
aI109282
aI109687
aI110350
aI110387
aI110669
aI112334
aI114066
aI114126
aI115203
aI117364
aI117531
aI117533
aI118198
aI118784
aI120478
aI121171
aI124853
aI127146
aI127152
aI127164
aI127172
aI127180
aI128900
aI128902
aI131023
aI131724
aI132333
aI133115
aI134248
aI134524
aI134796
aI134859
aI135787
aI136471
aI137337
aI140561
aI141846
aI142115
aI143511
aI143896
aI144210
aI145283
aI146682
aI148166
aI150696
aI151759
aI152711
aI154358
aI154975
aI158842
aI159817
aI160289
aI164540
aI164655
aI164917
aI165671
aI165843
aI165969
aI167064
aI167706
aI170907
aI171011
aI171251
aI172461
aI172705
aI173235
aI173317
aI175707
aI176423
aI178129
aI178323
aI179135
aI180265
aI180777
aI183199
aI184245
aI184257
aI187717
aI189111
aI190221
aI193579
asVChildren
p38
(lp39
I1
aI2
aI8
aI13
aI27
aI34
aI38
aI48
aI54
aI60
aI80
aI87
aI107
aI126
aI146
aI158
aI169
aI181
aI238
aI239
aI241
aI243
aI250
aI258
aI262
aI313
aI314
aI343
aI355
aI362
aI364
aI374
aI410
aI421
aI455
aI484
aI502
aI531
aI546
aI551
aI558
aI575
aI577
aI586
aI588
aI594
aI595
aI596
aI609
aI616
aI631
aI661
aI673
aI709
aI711
aI745
aI783
aI801
aI808
aI810
aI828
aI837
aI840
aI881
aI885
aI888
aI917
aI919
aI953
aI986
aI1005
aI1007
aI1009
aI1010
aI1011
aI1012
aI1013
aI1014
aI1015
aI1016
aI1017
aI1018
aI1021
aI1022
aI1023
aI1024
aI1025
aI1028
aI1029
aI1030
aI1031
aI1032
aI1033
aI1064
aI1073
aI1097
aI1099
aI1148
aI1223
aI1282
aI1302
aI1359
aI1367
aI1426
aI1460
aI1474
aI1489
aI1495
aI1547
aI1551
aI1566
aI1582
aI1583
aI1588
aI1592
aI1646
aI1654
aI1688
aI1702
aI1707
aI1713
aI1739
aI1806
aI1812
aI1826
aI1848
aI1881
aI1907
aI1919
aI1920
aI2005
aI2014
aI2015
aI2016
aI2017
aI2018
aI2032
aI2033
aI2034
aI2035
aI2036
aI2037
aI2038
aI2040
aI2041
aI2042
aI2043
aI2046
aI2048
aI2050
aI2051
aI2052
aI2053
aI2054
aI2056
aI2057
aI2059
aI2077
aI2078
aI2080
aI2081
aI2082
aI2083
aI2084
aI2085
aI2087
aI2089
aI2090
aI2091
aI2092
aI2093
aI2095
aI2096
aI2097
aI2098
aI2099
aI2102
aI2103
aI2116
aI2123
aI2124
aI2135
aI2137
aI2138
aI2139
aI2141
aI2142
aI2152
aI2161
aI2162
aI2294
aI2354
aI2355
aI2384
aI2392
aI2399
aI2400
aI2414
aI2422
aI2430
aI2559
aI2566
aI2687
aI2709
aI2720
aI2761
aI2798
aI2800
aI2804
aI2828
aI2846
aI2876
aI2886
aI2899
aI2953
aI2987
aI3034
aI3054
aI3086
aI3114
aI3157
aI3159
aI3189
aI3213
aI3287
aI3345
aI3388
aI3396
aI3397
aI3398
aI3400
aI3412
aI3438
aI3439
aI3440
aI3483
aI3564
aI3615
aI3672
aI3673
aI3674
aI3745
aI3751
aI3754
aI3799
aI3945
aI3964
aI3974
aI3988
aI3990
aI3991
aI4006
aI4016
aI4039
aI4090
aI4154
aI4232
aI4241
aI4294
aI4306
aI4366
aI4386
aI4477
aI4502
aI4519
aI4683
aI4700
aI4748
aI4749
aI4750
aI4822
aI4886
aI4896
aI4990
aI5048
aI5076
aI5092
aI5099
aI5103
aI5109
aI5159
aI5218
aI5311
aI5389
aI5419
aI5444
aI5448
aI5452
aI5458
aI5460
aI5472
aI5480
aI5504
aI5538
aI5539
aI5591
aI5601
aI5629
aI5672
aI5804
aI5882
aI5971
aI5990
aI6093
aI6158
aI6169
aI6170
aI6232
aI6239
aI6251
aI6297
aI6316
aI6332
aI6338
aI6350
aI6371
aI6377
aI6405
aI6427
aI6464
aI6536
aI6557
aI6559
aI6566
aI6593
aI6624
aI6625
aI6753
aI6793
aI6794
aI6798
aI6889
aI6936
aI6946
aI6951
aI6958
aI7045
aI7059
aI7161
aI7164
aI7247
aI7262
aI7345
aI7369
aI7743
aI8015
aI8169
aI8360
aI8372
aI8487
aI8526
aI8534
aI8574
aI8713
aI8907
aI8934
aI8961
aI8965
aI8974
aI8978
aI9004
aI26084
aI26133
aI26183
aI26198
aI26340
aI26504
aI26510
aI26528
aI26542
aI26590
aI26662
aI26792
aI26828
aI26999
aI27075
aI27155
aI27186
aI27619
aI27706
aI27731
aI27790
aI30793
aI31030
aI31193
aI31223
aI31422
aI31698
aI31700
aI32031
aI32289
aI33615
aI33639
aI33681
aI34321
aI34332
aI36289
aI36397
aI37857
aI38038
aI39307
aI40339
aI40851
aI41566
aI42191
aI42734
aI42761
aI43560
aI43869
aI44020
aI44022
aI44225
aI44399
aI45074
aI45208
aI45431
aI45517
aI46062
aI46337
aI46948
aI47124
aI47516
aI47721
aI48414
aI49274
aI49647
aI50601
aI50872
aI51698
aI51939
aI52287
aI52730
aI53121
aI53460
aI54768
aI56152
aI56171
aI56176
aI56915
aI58105
aI58299
aI59037
aI59141
aI59501
aI59784
aI60069
aI60141
aI60289
aI60365
aI60487
aI60516
aI60803
aI62376
aI62999
aI63239
aI63540
aI63859
aI65088
aI65261
aI65577
aI66915
aI67295
aI68954
aI69227
aI69644
aI70305
aI70697
aI71264
aI71745
aI72226
aI72294
aI72356
aI72701
aI72737
aI73042
aI73804
aI73854
aI74089
aI74282
aI74580
aI76093
aI76301
aI77206
aI78499
aI78637
aI79091
aI79139
aI79224
aI79572
aI80748
aI81564
aI81847
aI82169
aI83132
aI83177
aI83803
aI84637
aI84944
aI85259
aI85261
aI85295
aI85316
aI85736
aI86059
aI86286
aI86298
aI87222
aI87876
aI88267
aI88356
aI89586
aI90866
aI91094
aI91266
aI91353
aI91355
aI91386
aI91414
aI91488
aI92348
aI92643
aI92730
aI93208
aI94833
aI95105
aI95145
aI95147
aI95163
aI95167
aI95170
aI95193
aI95311
aI95313
aI95654
aI95738
aI95858
aI96283
aI97225
aI98061
aI98243
aI102025
aI103335
aI103755
aI104074
aI104076
aI104141
aI105468
aI105540
aI106441
aI107449
aI107999
aI108090
aI108540
aI108932
aI110130
aI110655
aI110781
aI111146
aI111659
aI112006
aI116941
aI117444
aI117851
aI117887
aI117922
aI118894
aI118997
aI119155
aI119655
aI121007
aI121097
aI121099
aI121781
aI122246
aI122932
aI124404
aI125970
aI125974
aI126088
aI126142
aI126482
aI126921
aI128944
aI128968
aI130073
aI130444
aI130450
aI130520
aI131098
aI131656
aI132046
aI132584
aI134849
aI134853
aI135216
aI135777
aI135887
aI136016
aI136341
aI136353
aI136355
aI136359
aI136503
aI136556
aI138702
aI140359
aI141994
aI145491
aI145935
aI146684
aI147142
aI147378
aI147380
aI148675
aI148775
aI149354
aI150554
aI151687
aI152081
aI152658
aI153386
aI156025
aI157865
aI158813
aI158830
aI160569
aI160573
aI162578
aI163072
aI164200
aI164707
aI166183
aI166203
aI166461
aI167036
aI167790
aI168418
aI170777
aI170837
aI170939
aI172547
aI172577
aI172585
aI172793
aI172825
aI173351
aI173873
aI175293
aI175387
aI175397
aI175475
aI176389
aI176621
aI177765
aI178827
aI179401
aI180987
aI182293
aI182299
aI182731
aI183301
aI184987
aI187541
aI187595
asVThriller
p40
(lp41
I6
aI10
aI20
aI21
aI22
aI23
aI32
aI45
aI47
aI50
aI61
aI66
aI70
aI76
aI78
aI79
aI89
aI92
aI95
aI100
aI103
aI111
aI132
aI145
aI149
aI161
aI164
aI165
aI170
aI172
aI183
aI185
aI190
aI198
aI217
aI225
aI227
aI229
aI230
aI240
aI257
aI259
aI280
aI288
aI291
aI292
aI293
aI296
aI303
aI311
aI315
aI319
aI320
aI328
aI335
aI338
aI349
aI350
aI353
aI366
aI373
aI376
aI377
aI379
aI380
aI382
aI407
aI415
aI420
aI422
aI423
aI426
aI427
aI434
aI436
aI454
aI456
aI457
aI459
aI464
aI474
aI479
aI480
aI481
aI482
aI490
aI494
aI496
aI507
aI519
aI521
aI540
aI541
aI543
aI547
aI548
aI555
aI579
aI587
aI592
aI593
aI608
aI627
aI628
aI640
aI648
aI662
aI678
aI680
aI692
aI695
aI707
aI724
aI731
aI733
aI736
aI742
aI748
aI780
aI782
aI784
aI786
aI798
aI799
aI805
aI832
aI836
aI839
aI849
aI861
aI866
aI869
aI876
aI879
aI880
aI882
aI891
aI903
aI904
aI906
aI908
aI911
aI928
aI929
aI930
aI931
aI933
aI965
aI968
aI990
aI996
aI1003
aI1004
aI1034
aI1036
aI1037
aI1047
aI1055
aI1061
aI1076
aI1086
aI1089
aI1092
aI1094
aI1127
aI1129
aI1206
aI1212
aI1218
aI1240
aI1245
aI1248
aI1249
aI1252
aI1253
aI1260
aI1264
aI1267
aI1269
aI1320
aI1321
aI1327
aI1332
aI1333
aI1336
aI1337
aI1339
aI1342
aI1343
aI1344
aI1345
aI1347
aI1350
aI1351
aI1352
aI1355
aI1356
aI1370
aI1374
aI1385
aI1388
aI1406
aI1407
aI1422
aI1427
aI1429
aI1430
aI1432
aI1438
aI1459
aI1479
aI1480
aI1483
aI1488
aI1499
aI1515
aI1518
aI1544
aI1552
aI1556
aI1562
aI1565
aI1573
aI1589
aI1590
aI1591
aI1597
aI1598
aI1603
aI1608
aI1609
aI1610
aI1616
aI1617
aI1620
aI1625
aI1626
aI1631
aI1644
aI1645
aI1647
aI1653
aI1655
aI1658
aI1661
aI1671
aI1674
aI1675
aI1686
aI1687
aI1689
aI1717
aI1718
aI1722
aI1729
aI1748
aI1752
aI1754
aI1769
aI1770
aI1779
aI1783
aI1785
aI1791
aI1792
aI1798
aI1799
aI1805
aI1824
aI1833
aI1834
aI1841
aI1845
aI1876
aI1882
aI1889
aI1891
aI1892
aI1909
aI1912
aI1917
aI1918
aI1921
aI1953
aI1970
aI1971
aI1974
aI1991
aI1992
aI1993
aI1994
aI1995
aI1996
aI2009
aI2023
aI2026
aI2058
aI2076
aI2097
aI2107
aI2110
aI2118
aI2121
aI2122
aI2126
aI2159
aI2160
aI2166
aI2167
aI2176
aI2177
aI2178
aI2179
aI2180
aI2181
aI2182
aI2183
aI2185
aI2186
aI2187
aI2203
aI2204
aI2206
aI2208
aI2210
aI2211
aI2212
aI2227
aI2232
aI2263
aI2267
aI2268
aI2273
aI2278
aI2279
aI2287
aI2288
aI2298
aI2315
aI2320
aI2327
aI2334
aI2338
aI2344
aI2346
aI2349
aI2353
aI2364
aI2367
aI2376
aI2389
aI2391
aI2402
aI2403
aI2404
aI2413
aI2414
aI2419
aI2429
aI2446
aI2455
aI2467
aI2468
aI2475
aI2483
aI2488
aI2490
aI2505
aI2521
aI2523
aI2524
aI2527
aI2535
aI2540
aI2542
aI2550
aI2551
aI2553
aI2554
aI2557
aI2560
aI2561
aI2571
aI2579
aI2586
aI2594
aI2600
aI2605
aI2617
aI2625
aI2664
aI2672
aI2676
aI2688
aI2707
aI2710
aI2712
aI2713
aI2719
aI2722
aI2734
aI2737
aI2741
aI2764
aI2790
aI2793
aI2802
aI2803
aI2806
aI2810
aI2812
aI2819
aI2827
aI2835
aI2840
aI2841
aI2851
aI2856
aI2867
aI2871
aI2881
aI2902
aI2903
aI2912
aI2916
aI2917
aI2939
aI2947
aI2948
aI2949
aI2952
aI2956
aI2959
aI2967
aI2974
aI2982
aI2983
aI2985
aI2986
aI2989
aI2990
aI2991
aI2992
aI2993
aI2995
aI3005
aI3006
aI3015
aI3032
aI3044
aI3055
aI3056
aI3063
aI3064
aI3082
aI3101
aI3102
aI3104
aI3113
aI3150
aI3169
aI3176
aI3190
aI3197
aI3203
aI3204
aI3219
aI3230
aI3238
aI3249
aI3256
aI3257
aI3262
aI3265
aI3266
aI3267
aI3273
aI3274
aI3275
aI3298
aI3300
aI3316
aI3334
aI3355
aI3370
aI3386
aI3403
aI3409
aI3420
aI3445
aI3452
aI3455
aI3461
aI3474
aI3484
aI3499
aI3505
aI3508
aI3510
aI3513
aI3527
aI3529
aI3535
aI3546
aI3551
aI3553
aI3555
aI3557
aI3584
aI3598
aI3623
aI3627
aI3633
aI3634
aI3635
aI3638
aI3639
aI3660
aI3661
aI3662
aI3663
aI3664
aI3681
aI3682
aI3686
aI3696
aI3697
aI3701
aI3703
aI3706
aI3708
aI3710
aI3726
aI3728
aI3729
aI3731
aI3741
aI3744
aI3755
aI3758
aI3761
aI3763
aI3764
aI3770
aI3797
aI3810
aI3826
aI3830
aI3835
aI3837
aI3849
aI3857
aI3863
aI3879
aI3893
aI3895
aI3896
aI3899
aI3906
aI3937
aI3946
aI3947
aI3952
aI3973
aI3981
aI3984
aI3986
aI4005
aI4011
aI4020
aI4033
aI4034
aI4037
aI4052
aI4056
aI4064
aI4077
aI4083
aI4084
aI4086
aI4093
aI4105
aI4109
aI4110
aI4124
aI4128
aI4142
aI4148
aI4159
aI4167
aI4210
aI4224
aI4226
aI4234
aI4235
aI4238
aI4242
aI4251
aI4265
aI4270
aI4298
aI4305
aI4326
aI4351
aI4354
aI4369
aI4383
aI4390
aI4407
aI4409
aI4434
aI4436
aI4438
aI4440
aI4443
aI4450
aI4496
aI4498
aI4506
aI4517
aI4522
aI4546
aI4552
aI4553
aI4574
aI4610
aI4625
aI4629
aI4632
aI4638
aI4640
aI4645
aI4658
aI4661
aI4670
aI4673
aI4689
aI4699
aI4719
aI4720
aI4725
aI4735
aI4754
aI4770
aI4776
aI4786
aI4789
aI4800
aI4803
aI4808
aI4814
aI4821
aI4833
aI4848
aI4855
aI4865
aI4876
aI4878
aI4885
aI4887
aI4893
aI4898
aI4901
aI4902
aI4919
aI4927
aI4932
aI4946
aI4951
aI4956
aI4957
aI4963
aI4965
aI4966
aI4975
aI4978
aI4998
aI5007
aI5008
aI5021
aI5026
aI5027
aI5033
aI5046
aI5054
aI5062
aI5064
aI5065
aI5093
aI5105
aI5108
aI5111
aI5120
aI5127
aI5181
aI5198
aI5209
aI5219
aI5254
aI5264
aI5266
aI5282
aI5293
aI5294
aI5297
aI5300
aI5311
aI5312
aI5313
aI5316
aI5319
aI5323
aI5329
aI5349
aI5364
aI5387
aI5388
aI5400
aI5416
aI5418
aI5423
aI5424
aI5433
aI5434
aI5437
aI5445
aI5465
aI5475
aI5476
aI5479
aI5502
aI5506
aI5507
aI5528
aI5544
aI5553
aI5556
aI5562
aI5564
aI5569
aI5570
aI5608
aI5609
aI5612
aI5628
aI5630
aI5666
aI5678
aI5679
aI5712
aI5733
aI5764
aI5771
aI5782
aI5787
aI5809
aI5828
aI5853
aI5867
aI5872
aI5876
aI5880
aI5883
aI5891
aI5893
aI5903
aI5938
aI5944
aI5949
aI5959
aI5961
aI5962
aI5980
aI6003
aI6009
aI6016
aI6021
aI6040
aI6044
aI6058
aI6059
aI6078
aI6086
aI6101
aI6140
aI6145
aI6148
aI6163
aI6185
aI6187
aI6193
aI6196
aI6213
aI6214
aI6219
aI6220
aI6228
aI6242
aI6250
aI6263
aI6264
aI6267
aI6280
aI6281
aI6283
aI6301
aI6322
aI6323
aI6333
aI6335
aI6337
aI6365
aI6379
aI6383
aI6387
aI6395
aI6440
aI6476
aI6503
aI6506
aI6530
aI6538
aI6548
aI6550
aI6552
aI6564
aI6574
aI6582
aI6584
aI6588
aI6595
aI6615
aI6629
aI6631
aI6639
aI6695
aI6705
aI6707
aI6709
aI6731
aI6734
aI6751
aI6774
aI6787
aI6803
aI6809
aI6810
aI6812
aI6820
aI6862
aI6868
aI6874
aI6879
aI6884
aI6885
aI6902
aI6909
aI6920
aI6927
aI6934
aI6950
aI6952
aI6953
aI6966
aI6971
aI6973
aI6975
aI6979
aI6989
aI7001
aI7004
aI7007
aI7013
aI7017
aI7018
aI7022
aI7031
aI7032
aI7040
aI7044
aI7046
aI7076
aI7107
aI7114
aI7115
aI7116
aI7127
aI7134
aI7163
aI7215
aI7216
aI7217
aI7235
aI7245
aI7254
aI7257
aI7282
aI7305
aI7321
aI7325
aI7333
aI7347
aI7348
aI7360
aI7362
aI7368
aI7371
aI7382
aI7419
aI7438
aI7439
aI7445
aI7449
aI7477
aI7560
aI7561
aI7569
aI7570
aI7573
aI7587
aI7616
aI7636
aI7646
aI7698
aI7700
aI7713
aI7728
aI7762
aI7766
aI7772
aI7792
aI7802
aI7826
aI7895
aI7924
aI7926
aI7930
aI7944
aI7981
aI7982
aI8016
aI8019
aI8035
aI8093
aI8094
aI8118
aI8157
aI8199
aI8207
aI8241
aI8268
aI8340
aI8361
aI8369
aI8371
aI8373
aI8456
aI8481
aI8501
aI8506
aI8588
aI8593
aI8600
aI8644
aI8665
aI8670
aI8765
aI8771
aI8772
aI8773
aI8781
aI8783
aI8798
aI8810
aI8815
aI8830
aI8831
aI8835
aI8836
aI8860
aI8861
aI8870
aI8879
aI8894
aI8908
aI8939
aI8947
aI8950
aI8955
aI8957
aI8968
aI8972
aI8973
aI8984
aI8985
aI25855
aI25927
aI26002
aI26116
aI26172
aI26184
aI26231
aI26242
aI26283
aI26285
aI26303
aI26344
aI26357
aI26365
aI26386
aI26492
aI26504
aI26523
aI26547
aI26585
aI26603
aI26612
aI26614
aI26693
aI26701
aI26704
aI26736
aI26761
aI26764
aI26791
aI26875
aI26887
aI26947
aI26965
aI27002
aI27022
aI27032
aI27124
aI27311
aI27317
aI27328
aI27397
aI27408
aI27426
aI27473
aI27480
aI27491
aI27549
aI27584
aI27604
aI27618
aI27674
aI27683
aI27689
aI27704
aI27705
aI27728
aI27746
aI27751
aI27773
aI27788
aI27801
aI27802
aI27821
aI27822
aI27831
aI27838
aI27839
aI27865
aI27904
aI30846
aI30894
aI31049
aI31364
aI31367
aI31420
aI31424
aI31427
aI31431
aI31590
aI31696
aI31737
aI31804
aI31921
aI32011
aI32029
aI32179
aI32213
aI32554
aI32587
aI32728
aI32743
aI32914
aI33085
aI33158
aI33164
aI33201
aI33437
aI33644
aI33683
aI33834
aI33893
aI34048
aI34143
aI34319
aI34334
aI34397
aI34532
aI34811
aI35957
aI36276
aI36401
aI36509
aI36517
aI36519
aI36529
aI36533
aI36850
aI37382
aI37495
aI37720
aI37727
aI37733
aI37853
aI38061
aI38583
aI39400
aI39427
aI39446
aI40148
aI40412
aI40478
aI40583
aI40614
aI40617
aI40723
aI40732
aI40815
aI40959
aI41014
aI41527
aI41569
aI41716
aI41997
aI42176
aI42285
aI42632
aI43679
aI43871
aI43904
aI43921
aI43928
aI43932
aI43936
aI44191
aI44199
aI44397
aI44555
aI44731
aI44759
aI44849
aI44974
aI45062
aI45081
aI45183
aI45186
aI45361
aI45442
aI45447
aI45499
aI45662
aI46335
aI46367
aI46572
aI46664
aI46723
aI46855
aI46965
aI47044
aI47200
aI47254
aI47261
aI47446
aI47465
aI47810
aI47937
aI47950
aI47952
aI47997
aI48142
aI48304
aI48394
aI48516
aI48518
aI48593
aI48596
aI48678
aI48738
aI48774
aI48780
aI48872
aI48877
aI48879
aI48883
aI48997
aI49272
aI49278
aI49530
aI49822
aI49932
aI50064
aI50147
aI50440
aI50445
aI50794
aI50800
aI50804
aI51037
aI51077
aI51080
aI51086
aI51357
aI51412
aI51540
aI51545
aI51666
aI51709
aI51925
aI51927
aI51935
aI51937
aI52042
aI52241
aI52281
aI52283
aI52328
aI52458
aI52604
aI52644
aI52712
aI52722
aI52831
aI52950
aI53000
aI53127
aI53129
aI53143
aI53280
aI53322
aI53435
aI53466
aI53468
aI53519
aI53921
aI53953
aI53972
aI53996
aI54116
aI54274
aI54286
aI54372
aI54648
aI54736
aI54771
aI54787
aI54910
aI55067
aI55080
aI55116
aI55118
aI55232
aI55253
aI55276
aI55278
aI55282
aI55391
aI55577
aI55721
aI55765
aI55805
aI55946
aI56003
aI56156
aI56169
aI56174
aI56336
aI56339
aI56620
aI56757
aI56921
aI57147
aI57274
aI57368
aI57526
aI57528
aI57637
aI57669
aI58025
aI58078
aI58103
aI58287
aI58293
aI58295
aI58297
aI58301
aI58803
aI58826
aI58964
aI58975
aI59016
aI59306
aI59369
aI59604
aI59727
aI59738
aI59915
aI59947
aI60030
aI60037
aI60072
aI60303
aI60471
aI60522
aI60538
aI60647
aI60684
aI60735
aI60760
aI60818
aI60832
aI60885
aI60937
aI60941
aI61073
aI61248
aI61262
aI61350
aI61352
aI61401
aI61465
aI61692
aI61697
aI61705
aI61818
aI62081
aI62374
aI62394
aI63033
aI63072
aI63113
aI63222
aI63436
aI63826
aI63992
aI64030
aI64231
aI64497
aI64983
aI65216
aI65350
aI65596
aI65601
aI65642
aI65682
aI65882
aI66090
aI66097
aI66171
aI66198
aI66310
aI66943
aI67186
aI67193
aI67197
aI67255
aI67361
aI67508
aI67799
aI67923
aI68159
aI68237
aI68319
aI68347
aI68554
aI68597
aI68791
aI69131
aI69140
aI69306
aI69481
aI69524
aI69640
aI69654
aI69904
aI70159
aI70206
aI70208
aI70286
aI70301
aI70305
aI70336
aI70361
aI70728
aI70994
aI71033
aI71135
aI71205
aI71211
aI71252
aI71254
aI71379
aI71494
aI71500
aI71530
aI71838
aI71999
aI72104
aI72129
aI72165
aI72167
aI72378
aI72407
aI72424
aI72489
aI72591
aI72601
aI72605
aI72731
aI73017
aI73211
aI73268
aI73488
aI73741
aI73808
aI73929
aI74228
aI74370
aI74452
aI74458
aI74510
aI74545
aI74685
aI74750
aI74795
aI74948
aI75389
aI75395
aI75813
aI75985
aI76030
aI76091
aI76143
aI77364
aI77561
aI77798
aI78088
aI78218
aI78266
aI78349
aI78467
aI78469
aI78574
aI78772
aI79057
aI79132
aI79251
aI79259
aI79293
aI79501
aI79695
aI79868
aI79879
aI80094
aI80126
aI80162
aI80219
aI80363
aI80489
aI80846
aI80880
aI81132
aI81535
aI81562
aI81591
aI81782
aI81788
aI82095
aI82202
aI82366
aI82378
aI82667
aI83349
aI83613
aI83796
aI84152
aI84189
aI84392
aI84601
aI84696
aI84942
aI84954
aI85020
aI85056
aI85397
aI85414
aI85510
aI85788
aI85796
aI86068
aI86190
aI86295
aI86644
aI86835
aI86892
aI86960
aI87028
aI87232
aI87306
aI87785
aI88129
aI88140
aI88515
aI88593
aI88699
aI88744
aI88932
aI89028
aI89085
aI89087
aI89208
aI89281
aI89343
aI89427
aI89470
aI89582
aI89753
aI89761
aI89837
aI89840
aI90345
aI90374
aI90376
aI90384
aI90405
aI90439
aI90522
aI90524
aI90528
aI90600
aI90738
aI91128
aI91500
aI91535
aI91542
aI91571
aI91630
aI91658
aI91660
aI91688
aI91842
aI91978
aI92008
aI92048
aI92192
aI92198
aI92309
aI92420
aI92422
aI92507
aI92938
aI93193
aI93242
aI93297
aI93502
aI93563
aI93598
aI93840
aI93982
aI94011
aI94018
aI94262
aI94405
aI94494
aI94867
aI94919
aI94985
aI95165
aI95207
aI95508
aI95583
aI95690
aI95761
aI95796
aI95875
aI96079
aI96114
aI96417
aI96518
aI96811
aI96815
aI96861
aI96917
aI97188
aI97304
aI97470
aI97643
aI97742
aI97785
aI97860
aI97988
aI98296
aI98361
aI98961
aI99112
aI99145
aI99721
aI99750
aI99910
aI99917
aI99992
aI100304
aI100383
aI100498
aI100579
aI100737
aI100810
aI100906
aI101076
aI101088
aI101360
aI101362
aI101529
aI101741
aI101884
aI101973
aI102066
aI102125
aI102278
aI102684
aI102716
aI102802
aI102903
aI102984
aI103075
aI103219
aI103235
aI103339
aI103366
aI103449
aI103483
aI103685
aI103688
aI103810
aI104243
aI104457
aI104879
aI104908
aI105020
aI105351
aI105504
aI105585
aI105653
aI105755
aI105835
aI106785
aI107069
aI107436
aI107462
aI107945
aI107962
aI107997
aI108188
aI108729
aI109295
aI109578
aI109723
aI109848
aI110286
aI110501
aI110611
aI111384
aI111551
aI111781
aI112171
aI112515
aI112556
aI112727
aI112818
aI112868
aI112940
aI113186
aI113252
aI113278
aI113313
aI113565
aI113573
aI113741
aI113780
aI113849
aI113862
aI114060
aI114246
aI114494
aI114847
aI114925
aI114935
aI115149
aI115569
aI115680
aI115713
aI116207
aI116797
aI116823
aI116897
aI117133
aI117529
aI117646
aI117867
aI117895
aI118082
aI118198
aI118248
aI118270
aI118326
aI118354
aI118706
aI118880
aI119167
aI119828
aI120466
aI120635
aI120637
aI120799
aI121253
aI121469
aI122433
aI122490
aI122882
aI122884
aI122920
aI124859
aI127096
aI127132
aI127136
aI127212
aI127319
aI127323
aI128488
aI128592
aI129333
aI129937
aI130050
aI130083
aI130482
aI130490
aI130578
aI130634
aI131439
aI131480
aI132422
aI132618
aI132796
aI133195
aI133365
aI133377
aI133782
aI133802
aI133832
aI134158
aI134246
aI135518
aI135937
aI136012
aI136602
aI136786
aI136850
aI137345
aI138208
aI138610
aI139052
aI139157
aI139655
aI139717
aI139857
aI139859
aI140711
aI140725
aI140850
aI140956
aI141688
aI142074
aI142366
aI142448
aI142488
aI142961
aI143255
aI143365
aI143367
aI143385
aI143458
aI143472
aI144522
aI144606
aI144714
aI145150
aI145951
aI146688
aI146730
aI148172
aI148709
aI149334
aI149590
aI149612
aI149830
aI149902
aI150548
aI151559
aI151695
aI151777
aI151781
aI152077
aI152079
aI155288
aI155358
aI156706
aI156726
aI157130
aI157200
aI157407
aI157699
aI158238
aI158528
aI158721
aI158783
aI159061
aI159093
aI160341
aI160440
aI160730
aI160836
aI160954
aI161634
aI161830
aI161966
aI162082
aI162602
aI162606
aI162828
aI163937
aI163985
aI164226
aI164367
aI165101
aI165343
aI165347
aI165635
aI166534
aI166568
aI168248
aI168358
aI169180
aI169984
aI170827
aI170875
aI170945
aI171759
aI171763
aI171917
aI172229
aI173751
aI173925
aI173941
aI174053
aI174055
aI174479
aI175485
aI175569
aI175585
aI176419
aI176579
aI176751
aI179053
aI179815
aI180263
aI180497
aI182715
aI183011
aI183295
aI183635
aI184253
aI184721
aI184931
aI185029
aI185031
aI185033
aI187031
aI189333
aI189381
aI190183
asVIMAX
p42
(lp43
I150
aI364
aI595
aI1797
aI3159
aI4445
aI4453
aI4454
aI4458
aI4459
aI4864
aI5378
aI5882
aI6289
aI6365
aI6934
aI8368
aI8636
aI8965
aI30793
aI32031
aI33794
aI40815
aI44191
aI45442
aI46530
aI46972
aI47124
aI48414
aI49274
aI51662
aI52722
aI53996
aI54001
aI55995
aI56174
aI58105
aI58559
aI58879
aI59037
aI59784
aI60684
aI62081
aI62999
aI64497
aI67408
aI68358
aI68793
aI69526
aI69844
aI71264
aI71745
aI72294
aI72998
aI74789
aI76093
aI77561
aI78105
aI78499
aI78637
aI78772
aI79132
aI80363
aI80615
aI81417
aI81564
aI81834
aI81847
aI82461
aI83349
aI83613
aI85056
aI85261
aI85510
aI86332
aI86644
aI86880
aI87222
aI87306
aI87520
aI87876
aI88125
aI88932
aI89470
aI89745
aI90249
aI90647
aI90746
aI91386
aI91529
aI91535
aI91630
aI91974
aI92681
aI93272
aI93363
aI93766
aI94018
aI94478
aI94777
aI94864
aI95105
aI95307
aI95510
aI96079
aI96691
aI97172
aI97701
aI97752
aI97938
aI98203
aI98243
aI98809
aI99149
aI100163
aI100498
aI100882
aI101025
aI101076
aI101112
aI101864
aI102088
aI102125
aI102445
aI102716
aI102880
aI103042
aI103228
aI103249
aI103253
aI103335
aI103339
aI103384
aI104129
aI104243
aI104841
aI105504
aI106002
aI106072
aI106487
aI106489
aI107953
aI108188
aI108190
aI108689
aI108945
aI109487
aI109673
aI109850
aI110102
aI110127
aI110553
aI110730
aI111364
aI111659
aI111759
aI116529
aI122886
as.