(dp0
I1
(dp1
VMystery
p2
F4.166666666666667
sVDrama
p3
F4.529411764705882
sVSci-Fi
p4
F4.225
sVAdventure
p5
F4.3882352941176475
sVHorror
p6
F3.4705882352941178
sVFilm-Noir
p7
F5.0
sVCrime
p8
F4.355555555555555
sVRomance
p9
F4.3076923076923075
sVFantasy
p10
F4.297872340425532
sVMusical
p11
F4.681818181818182
sVAnimation
p12
F4.689655172413793
sVIMAX
p13
I0
sVChildren
p14
F4.5476190476190474
sVAction
p15
F4.322222222222222
sV(no genres listed)
p16
I0
sVComedy
p17
F4.27710843373494
sVDocumentary
p18
I0
sVWar
p19
F4.5
sVThriller
p20
F4.1454545454545455
sVWestern
p21
F4.285714285714286
ssI2
(dp22
g2
F4.0
sg3
F3.8823529411764706
sg4
F3.875
sg5
F4.166666666666667
sg6
F3.0
sg7
I0
sg8
F3.8
sg9
F4.5
sg10
I0
sg11
I0
sg12
I0
sg13
F3.75
sg14
I0
sg15
F3.9545454545454546
sg16
I0
sg17
F4.0
sg18
F4.333333333333333
sg19
F4.5
sg20
F3.7
sg21
F3.5
ssI3
(dp23
g2
F5.0
sg3
F0.75
sg4
F4.2
sg5
F2.727272727272727
sg6
F4.6875
sg7
I0
sg8
F0.5
sg9
F0.5
sg10
F3.375
sg11
F0.5
sg12
F0.5
sg13
I0
sg14
F0.5
sg15
F3.5714285714285716
sg16
I0
sg17
F1.0
sg18
I0
sg19
F0.5
sg20
F4.142857142857143
sg21
I0
ssI4
(dp24
g2
F3.4782608695652173
sg3
F3.4833333333333334
sg4
F2.8333333333333335
sg5
F3.6551724137931036
sg6
F4.25
sg7
F4.0
sg8
F3.814814814814815
sg9
F3.3793103448275863
sg10
F3.6842105263157894
sg11
F4.0
sg12
F4.0
sg13
F3.0
sg14
F3.8
sg15
F3.32
sg16
I0
sg17
F3.5096153846153846
sg18
F4.0
sg19
F3.5714285714285716
sg20
F3.5526315789473686
sg21
F3.8
ssI5
(dp25
g2
F4.0
sg3
F3.8
sg4
F2.5
sg5
F3.25
sg6
F3.0
sg7
I0
sg8
F3.8333333333333335
sg9
F3.090909090909091
sg10
F4.142857142857143
sg11
F4.4
sg12
F4.333333333333333
sg13
F3.6666666666666665
sg14
F4.111111111111111
sg15
F3.111111111111111
sg16
I0
sg17
F3.466666666666667
sg18
I0
sg19
F3.3333333333333335
sg20
F3.5555555555555554
sg21
F3.0
ssI6
(dp26
g2
F3.7333333333333334
sg3
F3.6142857142857143
sg4
F3.4761904761904763
sg5
F3.893617021276596
sg6
F3.263157894736842
sg7
F2.5
sg8
F3.2857142857142856
sg9
F3.6142857142857143
sg10
F3.5384615384615383
sg11
F4.166666666666667
sg12
F4.071428571428571
sg13
F4.666666666666667
sg14
F3.617021276595745
sg15
F3.609375
sg16
I0
sg17
F3.37007874015748
sg18
I0
sg19
F3.5833333333333335
sg20
F3.5441176470588234
sg21
F3.8181818181818183
ssI7
(dp27
g2
F3.1785714285714284
sg3
F3.1315789473684212
sg4
F3.1547619047619047
sg5
F3.314814814814815
sg6
F4.0
sg7
F3.25
sg8
F3.3076923076923075
sg9
F2.65
sg10
F3.0652173913043477
sg11
F3.6666666666666665
sg12
F3.392857142857143
sg13
F2.4545454545454546
sg14
F3.2
sg15
F3.2578125
sg16
I0
sg17
F3.163265306122449
sg18
I0
sg19
F3.2916666666666665
sg20
F3.4302325581395348
sg21
F1.5
ssI8
(dp28
g2
F4.0
sg3
F3.789473684210526
sg4
F3.25
sg5
F3.5454545454545454
sg6
F4.5
sg7
I0
sg8
F3.888888888888889
sg9
F3.5
sg10
F3.25
sg11
F5.0
sg12
F5.0
sg13
F4.5
sg14
F4.25
sg15
F3.3333333333333335
sg16
I0
sg17
F3.2083333333333335
sg18
I0
sg19
F3.6666666666666665
sg20
F3.75
sg21
F3.0
ssI9
(dp29
g2
F4.0
sg3
F3.4285714285714284
sg4
F3.0
sg5
F3.8
sg6
F1.8
sg7
F4.0
sg8
F3.142857142857143
sg9
F3.1666666666666665
sg10
F5.0
sg11
F3.0
sg12
F4.0
sg13
F3.0
sg14
F4.0
sg15
F3.125
sg16
I0
sg17
F3.6666666666666665
sg18
I0
sg19
F3.5
sg20
F2.5454545454545454
sg21
F4.0
ssI10
(dp30
g2
F2.1666666666666665
sg3
F3.1527777777777777
sg4
F2.0
sg5
F3.5806451612903225
sg6
F1.75
sg7
I0
sg8
F3.1153846153846154
sg9
F3.3333333333333335
sg10
F3.4411764705882355
sg11
F3.3333333333333335
sg12
F3.8666666666666667
sg13
F3.361111111111111
sg14
F3.607142857142857
sg15
F3.5
sg16
I0
sg17
F3.2658227848101267
sg18
I0
sg19
F3.75
sg20
F3.076923076923077
sg21
I0
ssI11
(dp31
g2
F4.333333333333333
sg3
F4.166666666666667
sg4
F3.5
sg5
F3.5555555555555554
sg6
F5.0
sg7
I0
sg8
F3.6923076923076925
sg9
F4.230769230769231
sg10
F2.0
sg11
I0
sg12
I0
sg13
F5.0
sg14
I0
sg15
F3.5434782608695654
sg16
I0
sg17
F3.4166666666666665
sg18
I0
sg19
F4.333333333333333
sg20
F3.65625
sg21
F4.0
ssI12
(dp32
g2
I0
sg3
F4.5625
sg4
F4.5
sg5
F3.0
sg6
I0
sg7
I0
sg8
F3.0
sg9
F4.571428571428571
sg10
F4.25
sg11
I0
sg12
F3.0
sg13
I0
sg14
I0
sg15
F4.0
sg16
I0
sg17
F4.305555555555555
sg18
I0
sg19
F4.5
sg20
F4.0
sg21
I0
ssI13
(dp33
g2
F4.5
sg3
F3.5
sg4
F4.2
sg5
F4.166666666666667
sg6
F4.0
sg7
I0
sg8
F3.6666666666666665
sg9
F3.6666666666666665
sg10
F3.0
sg11
I0
sg12
I0
sg13
I0
sg14
I0
sg15
F4.2
sg16
I0
sg17
F3.272727272727273
sg18
I0
sg19
F3.5
sg20
F3.8181818181818183
sg21
F4.0
ssI14
(dp34
g2
F4.5
sg3
F3.7083333333333335
sg4
F3.5
sg5
F3.4444444444444446
sg6
F4.0
sg7
I0
sg8
F2.7142857142857144
sg9
F3.5714285714285716
sg10
F1.0
sg11
F4.0
sg12
I0
sg13
F4.0
sg14
F3.0
sg15
F3.3333333333333335
sg16
I0
sg17
F2.7058823529411766
sg18
I0
sg19
F4.25
sg20
F3.4615384615384617
sg21
F4.25
ssI15
(dp35
g2
F3.4166666666666665
sg3
F3.740740740740741
sg4
F3.5847457627118646
sg5
F3.3421052631578947
sg6
F3.8181818181818183
sg7
I0
sg8
F3.5789473684210527
sg9
F3.8846153846153846
sg10
F2.90625
sg11
F2.7
sg12
F2.9545454545454546
sg13
F3.3055555555555554
sg14
F2.6904761904761907
sg15
F3.2033898305084745
sg16
I0
sg17
F3.357142857142857
sg18
I0
sg19
F4.1
sg20
F3.4318181818181817
sg21
F2.5
ssI16
(dp36
g2
F3.769230769230769
sg3
F3.7291666666666665
sg4
F3.6875
sg5
F3.775
sg6
F3.5
sg7
F4.0
sg8
F3.75
sg9
F3.6538461538461537
sg10
F3.9375
sg11
I0
sg12
F3.9583333333333335
sg13
F4.125
sg14
F4.0
sg15
F3.52
sg16
I0
sg17
F3.74
sg18
F4.0
sg19
F3.6818181818181817
sg20
F3.793103448275862
sg21
F3.0
ssI17
(dp37
g2
F4.05
sg3
F4.186274509803922
sg4
F4.4
sg5
F4.285714285714286
sg6
F4.166666666666667
sg7
F3.75
sg8
F4.25
sg9
F3.9285714285714284
sg10
F4.323529411764706
sg11
F4.0
sg12
F4.4
sg13
F4.166666666666667
sg14
F4.214285714285714
sg15
F4.230769230769231
sg16
I0
sg17
F4.157894736842105
sg18
F3.5
sg19
F4.444444444444445
sg20
F4.277777777777778
sg21
F4.25
ssI18
(dp38
g2
F4.026785714285714
sg3
F3.8944954128440368
sg4
F3.640909090909091
sg5
F3.6338028169014085
sg6
F3.3
sg7
F3.875
sg8
F3.9347826086956523
sg9
F3.6818181818181817
sg10
F3.644230769230769
sg11
F3.7083333333333335
sg12
F3.7580645161290325
sg13
F3.675675675675676
sg14
F3.5428571428571427
sg15
F3.588516746411483
sg16
I0
sg17
F3.5067567567567566
sg18
F3.9444444444444446
sg19
F3.9375
sg20
F3.7928994082840237
sg21
F4.181818181818182
ssI19
(dp39
g2
F2.9655172413793105
sg3
F2.609271523178808
sg4
F2.559055118110236
sg5
F2.8152866242038215
sg6
F2.267857142857143
sg7
F3.3333333333333335
sg8
F2.9027777777777777
sg9
F2.6791044776119404
sg10
F2.8333333333333335
sg11
F2.8378378378378377
sg12
F2.9375
sg13
F3.0
sg14
F2.696078431372549
sg15
F2.7266666666666666
sg16
I0
sg17
F2.64021164021164
sg18
I0
sg19
F3.0
sg20
F2.5467980295566504
sg21
F2.5454545454545454
ssI20
(dp40
g2
F3.21875
sg3
F3.8098591549295775
sg4
F3.227272727272727
sg5
F3.441860465116279
sg6
F3.125
sg7
F1.5
sg8
F3.24
sg9
F3.9875
sg10
F3.8645833333333335
sg11
F4.472727272727273
sg12
F4.184615384615385
sg13
F4.6
sg14
F3.90990990990991
sg15
F2.75531914893617
sg16
I0
sg17
F3.6714285714285713
sg18
F3.75
sg19
F3.5
sg20
F2.72972972972973
sg21
F1.5
ssI21
(dp41
g2
F3.361111111111111
sg3
F2.952127659574468
sg4
F3.44811320754717
sg5
F3.6638418079096047
sg6
F1.7666666666666666
sg7
F3.5
sg8
F3.1780821917808217
sg9
F3.2384615384615385
sg10
F3.0873015873015874
sg11
F2.8
sg12
F3.2413793103448274
sg13
F3.5964912280701755
sg14
F3.2049180327868854
sg15
F3.4557522123893807
sg16
F4.0
sg17
F3.201492537313433
sg18
I0
sg19
F3.625
sg20
F3.5450819672131146
sg21
F4.0
ssI22
(dp42
g2
F2.4583333333333335
sg3
F2.6095890410958904
sg4
F2.1
sg5
F2.3461538461538463
sg6
F2.5
sg7
F4.5
sg8
F2.533333333333333
sg9
F2.2045454545454546
sg10
F1.875
sg11
F4.5
sg12
F2.7083333333333335
sg13
F1.75
sg14
F2.75
sg15
F2.783333333333333
sg16
I0
sg17
F2.4871794871794872
sg18
F2.0
sg19
F2.3333333333333335
sg20
F2.783333333333333
sg21
F4.0
ssI23
(dp43
g2
F4.068181818181818
sg3
F3.642857142857143
sg4
F3.911764705882353
sg5
F3.388888888888889
sg6
F4.0
sg7
F3.9545454545454546
sg8
F3.6538461538461537
sg9
F3.3333333333333335
sg10
F3.8214285714285716
sg11
I0
sg12
F3.8
sg13
F3.0
sg14
F3.5
sg15
F3.537037037037037
sg16
I0
sg17
F3.4166666666666665
sg18
F3.25
sg19
F3.75
sg20
F3.723684210526316
sg21
F3.5
ssI24
(dp44
g2
F3.769230769230769
sg3
F3.6875
sg4
F3.64
sg5
F3.6515151515151514
sg6
F3.625
sg7
I0
sg8
F3.9130434782608696
sg9
F3.5454545454545454
sg10
F3.7333333333333334
sg11
F3.5
sg12
F4.25
sg13
F3.85
sg14
F4.25
sg15
F3.642857142857143
sg16
I0
sg17
F3.59
sg18
I0
sg19
F3.7142857142857144
sg20
F3.6470588235294117
sg21
I0
ssI25
(dp45
g2
F4.75
sg3
F4.958333333333333
sg4
F4.722222222222222
sg5
F4.75
sg6
I0
sg7
I0
sg8
F5.0
sg9
F5.0
sg10
F5.0
sg11
I0
sg12
F4.666666666666667
sg13
F5.0
sg14
F4.666666666666667
sg15
F4.833333333333333
sg16
I0
sg17
F4.5
sg18
I0
sg19
F5.0
sg20
F4.875
sg21
I0
ssI26
(dp46
g2
F4.0
sg3
F3.25
sg4
F2.0
sg5
F2.6666666666666665
sg6
F4.0
sg7
I0
sg8
F3.5
sg9
F3.0
sg10
I0
sg11
I0
sg12
I0
sg13
F3.0
sg14
F3.0
sg15
F3.0
sg16
I0
sg17
F3.2
sg18
I0
sg19
F3.0
sg20
F3.4285714285714284
sg21
I0
ssI27
(dp47
g2
F4.333333333333333
sg3
F3.8
sg4
F3.375
sg5
F3.6440677966101696
sg6
F1.5
sg7
F4.0
sg8
F3.5714285714285716
sg9
F4.130434782608695
sg10
F3.3636363636363638
sg11
F3.923076923076923
sg12
F3.3636363636363638
sg13
F4.0
sg14
F3.2448979591836733
sg15
F3.642857142857143
sg16
I0
sg17
F3.4
sg18
I0
sg19
F3.6
sg20
F3.4285714285714284
sg21
F3.9
ssI28
(dp48
g2
F2.9285714285714284
sg3
F2.9985994397759104
sg4
F3.182926829268293
sg5
F3.1596638655462184
sg6
F2.7777777777777777
sg7
F3.0
sg8
F2.97
sg9
F2.8902439024390243
sg10
F3.1
sg11
F3.5
sg12
F3.4
sg13
F3.769230769230769
sg14
F3.125
sg15
F3.063775510204082
sg16
I0
sg17
F2.828125
sg18
F3.25
sg19
F3.3333333333333335
sg20
F2.9310344827586206
sg21
F3.2916666666666665
ssI29
(dp49
g2
F4.357142857142857
sg3
F4.21
sg4
F4.111111111111111
sg5
F4.166666666666667
sg6
F4.25
sg7
F5.0
sg8
F4.033333333333333
sg9
F4.333333333333333
sg10
F3.875
sg11
F3.1666666666666665
sg12
F3.5
sg13
F4.1
sg14
F4.25
sg15
F4.016129032258065
sg16
I0
sg17
F3.590909090909091
sg18
F4.25
sg19
F4.318181818181818
sg20
F3.9761904761904763
sg21
F4.444444444444445
ssI30
(dp50
g2
F5.0
sg3
F5.0
sg4
F4.647058823529412
sg5
F4.7894736842105265
sg6
F3.0
sg7
I0
sg8
F4.857142857142857
sg9
F5.0
sg10
F4.75
sg11
I0
sg12
F4.6
sg13
F5.0
sg14
F4.666666666666667
sg15
F4.72
sg16
I0
sg17
F4.6
sg18
I0
sg19
F5.0
sg20
F4.3
sg21
I0
ssI31
(dp51
g2
F5.0
sg3
F3.6666666666666665
sg4
F3.7777777777777777
sg5
F4.0
sg6
F3.5
sg7
I0
sg8
F3.3333333333333335
sg9
F3.75
sg10
F3.7
sg11
F4.6
sg12
F4.0
sg13
I0
sg14
F4.142857142857143
sg15
F4.333333333333333
sg16
I0
sg17
F3.8636363636363638
sg18
F5.0
sg19
F5.0
sg20
F4.454545454545454
sg21
I0
ssI32
(dp52
g2
F3.625
sg3
F3.977272727272727
sg4
F3.3636363636363638
sg5
F3.5555555555555554
sg6
F3.3333333333333335
sg7
I0
sg8
F4.052631578947368
sg9
F3.7333333333333334
sg10
F3.5833333333333335
sg11
F4.0
sg12
F3.0
sg13
I0
sg14
F3.5
sg15
F3.566666666666667
sg16
I0
sg17
F3.7209302325581395
sg18
F4.0
sg19
F3.3333333333333335
sg20
F3.6363636363636362
sg21
F3.0
ssI33
(dp53
g2
F3.6666666666666665
sg3
F3.791304347826087
sg4
F4.142857142857143
sg5
F3.9
sg6
F4.5
sg7
F5.0
sg8
F3.923076923076923
sg9
F3.8545454545454545
sg10
F3.5
sg11
F4.0
sg12
F3.8333333333333335
sg13
F3.0
sg14
F3.875
sg15
F4.0
sg16
I0
sg17
F3.8275862068965516
sg18
I0
sg19
F4.125
sg20
F3.6333333333333333
sg21
F4.0
ssI34
(dp54
g2
F3.0714285714285716
sg3
F3.25
sg4
F3.347826086956522
sg5
F3.8076923076923075
sg6
F3.4444444444444446
sg7
I0
sg8
F3.772727272727273
sg9
F3.1
sg10
F3.25
sg11
I0
sg12
F3.642857142857143
sg13
F3.1666666666666665
sg14
F2.75
sg15
F3.735294117647059
sg16
I0
sg17
F3.2027027027027026
sg18
F2.0
sg19
F2.1
sg20
F3.769230769230769
sg21
F3.5
ssI35
(dp55
g2
F5.0
sg3
F4.222222222222222
sg4
F3.0
sg5
F4.2
sg6
I0
sg7
I0
sg8
F4.75
sg9
F3.5555555555555554
sg10
F4.0
sg11
F3.0
sg12
F3.0
sg13
F4.0
sg14
F4.0
sg15
F4.0
sg16
I0
sg17
F3.9
sg18
I0
sg19
F2.0
sg20
F4.75
sg21
F3.5
ssI36
(dp56
g2
F3.0
sg3
F2.5555555555555554
sg4
F2.3
sg5
F2.8076923076923075
sg6
F3.0
sg7
F3.25
sg8
F2.735294117647059
sg9
F2.3461538461538463
sg10
F2.0
sg11
F1.5
sg12
I0
sg13
I0
sg14
F1.8333333333333333
sg15
F2.638888888888889
sg16
I0
sg17
F2.347826086956522
sg18
I0
sg19
F2.9
sg20
F2.892857142857143
sg21
F2.0
ssI37
(dp57
g2
I0
sg3
F4.125
sg4
F4.25
sg5
F3.75
sg6
F5.0
sg7
I0
sg8
F4.142857142857143
sg9
F3.0
sg10
F3.5
sg11
F3.5
sg12
F3.0
sg13
F5.0
sg14
F3.5
sg15
F3.7142857142857144
sg16
I0
sg17
F4.125
sg18
I0
sg19
F4.0
sg20
F4.111111111111111
sg21
F4.0
ssI38
(dp58
g2
F4.333333333333333
sg3
F3.2857142857142856
sg4
F2.3333333333333335
sg5
F2.9375
sg6
F2.0
sg7
I0
sg8
F3.3333333333333335
sg9
F3.111111111111111
sg10
F3.142857142857143
sg11
F3.2
sg12
F3.2
sg13
F3.3333333333333335
sg14
F3.125
sg15
F3.0526315789473686
sg16
I0
sg17
F3.2
sg18
F5.0
sg19
F3.7142857142857144
sg20
F3.388888888888889
sg21
F2.6
ssI39
(dp59
g2
F3.75
sg3
F4.114285714285714
sg4
F4.0
sg5
F3.875
sg6
F4.461538461538462
sg7
F3.5
sg8
F4.4
sg9
F3.6
sg10
F3.75
sg11
F3.125
sg12
F3.2916666666666665
sg13
F4.0
sg14
F3.130434782608696
sg15
F4.25
sg16
I0
sg17
F4.0
sg18
I0
sg19
F4.0
sg20
F4.217391304347826
sg21
F4.0
ssI40
(dp60
g2
F4.333333333333333
sg3
F4.2
sg4
F3.0
sg5
F3.4782608695652173
sg6
F2.6666666666666665
sg7
I0
sg8
F4.0
sg9
F3.6818181818181817
sg10
F3.75
sg11
F3.4285714285714284
sg12
F3.625
sg13
F4.333333333333333
sg14
F3.7222222222222223
sg15
F3.5217391304347827
sg16
I0
sg17
F3.6341463414634148
sg18
I0
sg19
F4.0
sg20
F3.8666666666666667
sg21
F4.0
ssI41
(dp61
g2
F3.3
sg3
F3.4346153846153844
sg4
F2.3
sg5
F2.6818181818181817
sg6
F2.9583333333333335
sg7
F4.25
sg8
F3.3846153846153846
sg9
F3.316666666666667
sg10
F2.75
sg11
F3.0
sg12
F3.6666666666666665
sg13
F1.5
sg14
F3.2222222222222223
sg15
F2.5256410256410255
sg16
I0
sg17
F3.403409090909091
sg18
F1.5
sg19
F2.923076923076923
sg20
F3.267857142857143
sg21
F4.0
ssI42
(dp62
g2
F3.962962962962963
sg3
F3.818713450292398
sg4
F3.25
sg5
F3.513888888888889
sg6
F3.0
sg7
F3.5
sg8
F3.7464788732394365
sg9
F3.640449438202247
sg10
F3.590909090909091
sg11
F3.857142857142857
sg12
F4.0
sg13
F4.5
sg14
F2.9285714285714284
sg15
F3.4
sg16
I0
sg17
F3.4123222748815167
sg18
F4.333333333333333
sg19
F3.8095238095238093
sg20
F3.5775862068965516
sg21
F3.9166666666666665
ssI43
(dp63
g2
F4.5
sg3
F4.428571428571429
sg4
F4.666666666666667
sg5
F4.676470588235294
sg6
F4.6
sg7
I0
sg8
F4.25
sg9
F4.52
sg10
F4.882352941176471
sg11
F5.0
sg12
F5.0
sg13
F5.0
sg14
F4.9375
sg15
F4.32258064516129
sg16
I0
sg17
F4.5227272727272725
sg18
I0
sg19
F4.0
sg20
F4.310344827586207
sg21
F4.0
ssI44
(dp64
g2
F3.0
sg3
F3.5833333333333335
sg4
F3.111111111111111
sg5
F3.45
sg6
F2.3333333333333335
sg7
I0
sg8
F4.0
sg9
F3.375
sg10
F2.3333333333333335
sg11
F3.0
sg12
F2.75
sg13
I0
sg14
F2.3333333333333335
sg15
F3.4545454545454546
sg16
I0
sg17
F3.391304347826087
sg18
I0
sg19
I0
sg20
F3.176470588235294
sg21
I0
ssI45
(dp65
g2
F4.2105263157894735
sg3
F4.037190082644628
sg4
F3.72
sg5
F4.015151515151516
sg6
F4.03125
sg7
I0
sg8
F4.196078431372549
sg9
F3.920289855072464
sg10
F3.7555555555555555
sg11
F4.296296296296297
sg12
F4.435483870967742
sg13
F4.714285714285714
sg14
F3.861111111111111
sg15
F4.009433962264151
sg16
I0
sg17
F3.68552036199095
sg18
F4.0
sg19
F4.428571428571429
sg20
F4.017647058823529
sg21
F3.6666666666666665
ssI46
(dp66
g2
F4.333333333333333
sg3
F4.0
sg4
F4.0
sg5
F4.076923076923077
sg6
F4.5
sg7
I0
sg8
F4.0
sg9
F4.5
sg10
F4.666666666666667
sg11
F5.0
sg12
F5.0
sg13
F5.0
sg14
F5.0
sg15
F3.888888888888889
sg16
I0
sg17
F3.9166666666666665
sg18
I0
sg19
F4.333333333333333
sg20
F3.9444444444444446
sg21
F4.333333333333333
ssI47
(dp67
g2
F2.6875
sg3
F3.2242990654205608
sg4
F2.85
sg5
F2.95
sg6
F2.0833333333333335
sg7
I0
sg8
F3.275
sg9
F2.896551724137931
sg10
F2.5
sg11
F2.9285714285714284
sg12
I0
sg13
F2.9166666666666665
sg14
F3.0
sg15
F2.8125
sg16
I0
sg17
F2.4714285714285715
sg18
F3.2857142857142856
sg19
F3.5
sg20
F2.840909090909091
sg21
F3.5
ssI48
(dp68
g2
F4.5
sg3
F4.0
sg4
F4.166666666666667
sg5
F4.038461538461538
sg6
F4.333333333333333
sg7
I0
sg8
F4.25
sg9
F4.0
sg10
F4.5
sg11
F4.25
sg12
F4.375
sg13
F4.25
sg14
F4.375
sg15
F4.0227272727272725
sg16
I0
sg17
F4.1875
sg18
I0
sg19
I0
sg20
F3.966666666666667
sg21
I0
ssI49
(dp69
g2
F4.25
sg3
F4.35
sg4
F4.333333333333333
sg5
F4.25
sg6
F4.25
sg7
I0
sg8
F4.166666666666667
sg9
F4.0
sg10
I0
sg11
I0
sg12
F4.0
sg13
F4.333333333333333
sg14
F4.1
sg15
F4.357142857142857
sg16
I0
sg17
F4.0
sg18
I0
sg19
F4.25
sg20
F4.25
sg21
I0
ssI50
(dp70
g2
F3.225
sg3
F3.0396825396825395
sg4
F2.55
sg5
F2.475
sg6
F2.625
sg7
F3.5
sg8
F2.933333333333333
sg9
F2.8181818181818183
sg10
F2.8295454545454546
sg11
F2.566666666666667
sg12
F2.6226415094339623
sg13
F2.0681818181818183
sg14
F2.261904761904762
sg15
F2.450617283950617
sg16
F2.75
sg17
F2.590909090909091
sg18
F3.142857142857143
sg19
F3.4545454545454546
sg20
F2.824561403508772
sg21
F3.1666666666666665
ssI51
(dp71
g2
F3.6956521739130435
sg3
F4.066666666666666
sg4
F3.774193548387097
sg5
F3.591549295774648
sg6
F3.7596153846153846
sg7
F4.166666666666667
sg8
F3.8461538461538463
sg9
F3.9705882352941178
sg10
F3.875
sg11
F3.607142857142857
sg12
F3.0588235294117645
sg13
F3.25
sg14
F3.1333333333333333
sg15
F3.478021978021978
sg16
I0
sg17
F3.8048780487804876
sg18
F5.0
sg19
F4.2727272727272725
sg20
F3.4597701149425286
sg21
F3.5555555555555554
ssI52
(dp72
g2
F4.666666666666667
sg3
F4.421875
sg4
F4.592592592592593
sg5
F4.589743589743589
sg6
F4.333333333333333
sg7
I0
sg8
F4.625
sg9
F4.388888888888889
sg10
F4.545454545454546
sg11
F4.666666666666667
sg12
F4.464285714285714
sg13
F4.5
sg14
F4.461538461538462
sg15
F4.534246575342466
sg16
I0
sg17
F4.428571428571429
sg18
F4.5
sg19
F4.375
sg20
F4.578431372549019
sg21
F4.0
ssI53
(dp73
g2
F5.0
sg3
F5.0
sg4
F5.0
sg5
F5.0
sg6
F5.0
sg7
F5.0
sg8
F5.0
sg9
F5.0
sg10
I0
sg11
F5.0
sg12
I0
sg13
I0
sg14
I0
sg15
F5.0
sg16
I0
sg17
F5.0
sg18
I0
sg19
F5.0
sg20
F5.0
sg21
I0
ssI54
(dp74
g2
F3.0
sg3
F3.1333333333333333
sg4
F3.0
sg5
F3.0
sg6
F4.0
sg7
I0
sg8
F3.125
sg9
F3.1666666666666665
sg10
F3.0
sg11
F3.0
sg12
F3.0
sg13
F3.0
sg14
F2.8
sg15
F2.857142857142857
sg16
I0
sg17
F2.923076923076923
sg18
I0
sg19
F3.3333333333333335
sg20
F3.0
sg21
F3.0
ssI55
(dp75
g2
F3.5
sg3
F2.9166666666666665
sg4
F1.3333333333333333
sg5
F2.625
sg6
I0
sg7
I0
sg8
F4.35
sg9
F0.5
sg10
F1.75
sg11
F0.5
sg12
F0.5
sg13
I0
sg14
F1.25
sg15
F2.9
sg16
I0
sg17
F2.5555555555555554
sg18
I0
sg19
F2.25
sg20
F4.055555555555555
sg21
I0
ssI56
(dp76
g2
F4.0
sg3
F3.9411764705882355
sg4
F3.5555555555555554
sg5
F3.9166666666666665
sg6
F3.6666666666666665
sg7
I0
sg8
F3.5384615384615383
sg9
F4.25
sg10
F3.3333333333333335
sg11
F5.0
sg12
F5.0
sg13
F5.0
sg14
F4.0
sg15
F3.5833333333333335
sg16
I0
sg17
F3.9375
sg18
I0
sg19
F4.333333333333333
sg20
F3.8095238095238093
sg21
I0
ssI57
(dp77
g2
F3.7941176470588234
sg3
F3.5491329479768785
sg4
F3.1473684210526316
sg5
F3.3555555555555556
sg6
F2.823529411764706
sg7
F4.153846153846154
sg8
F3.463768115942029
sg9
F3.4
sg10
F3.42
sg11
F3.7142857142857144
sg12
F3.757575757575758
sg13
F3.75
sg14
F3.3488372093023258
sg15
F3.207865168539326
sg16
I0
sg17
F3.4019607843137254
sg18
F4.0
sg19
F4.147058823529412
sg20
F3.15625
sg21
F3.6842105263157894
ssI58
(dp78
g2
F4.5
sg3
F4.020408163265306
sg4
F3.7
sg5
F3.764705882352941
sg6
F2.3333333333333335
sg7
I0
sg8
F3.6470588235294117
sg9
F4.0
sg10
F4.0
sg11
F4.444444444444445
sg12
F4.375
sg13
F4.333333333333333
sg14
F4.2727272727272725
sg15
F3.8076923076923075
sg16
I0
sg17
F3.765957446808511
sg18
I0
sg19
F4.2
sg20
F4.03125
sg21
F3.3333333333333335
ssI59
(dp79
g2
F4.5
sg3
F4.677966101694915
sg4
F3.8461538461538463
sg5
F3.6818181818181817
sg6
F5.0
sg7
F4.666666666666667
sg8
F4.222222222222222
sg9
F4.6
sg10
F3.25
sg11
I0
sg12
F3.0
sg13
F5.0
sg14
F3.0
sg15
F4.0
sg16
I0
sg17
F3.9583333333333335
sg18
F4.5
sg19
F4.72
sg20
F4.4
sg21
I0
ssI60
(dp80
g2
F3.5
sg3
F3.933333333333333
sg4
I0
sg5
F3.5
sg6
I0
sg7
I0
sg8
F4.0
sg9
F3.4
sg10
F3.0
sg11
F3.5
sg12
F3.5
sg13
F5.0
sg14
F3.4
sg15
F4.0
sg16
I0
sg17
F3.5
sg18
I0
sg19
F4.0
sg20
F3.5
sg21
I0
ssI61
(dp81
g2
F4.4
sg3
F4.194444444444445
sg4
F3.7222222222222223
sg5
F4.0
sg6
F4.0
sg7
I0
sg8
F4.1923076923076925
sg9
F3.125
sg10
F4.25
sg11
I0
sg12
I0
sg13
I0
sg14
I0
sg15
F3.8636363636363638
sg16
I0
sg17
F3.5
sg18
I0
sg19
F4.166666666666667
sg20
F4.166666666666667
sg21
F3.875
ssI62
(dp82
g2
F4.22093023255814
sg3
F4.28125
sg4
F3.973913043478261
sg5
F3.933333333333333
sg6
F4.023809523809524
sg7
F4.5
sg8
F4.468253968253968
sg9
F3.782608695652174
sg10
F3.8943661971830985
sg11
F3.4166666666666665
sg12
F3.392857142857143
sg13
F4.0588235294117645
sg14
F3.6458333333333335
sg15
F3.9880239520958085
sg16
F4.5
sg17
F3.8736263736263736
sg18
I0
sg19
F4.157894736842105
sg20
F4.1521739130434785
sg21
F4.5
ssI63
(dp83
g2
F3.9047619047619047
sg3
F3.6
sg4
F3.413793103448276
sg5
F3.5280898876404496
sg6
F3.0416666666666665
sg7
F4.4
sg8
F3.794642857142857
sg9
F3.5
sg10
F3.5921052631578947
sg11
F4.2
sg12
F4.242424242424242
sg13
F3.380952380952381
sg14
F3.8
sg15
F3.5833333333333335
sg16
I0
sg17
F3.75
sg18
F4.357142857142857
sg19
F3.46875
sg20
F3.536231884057971
sg21
F4.0
ssI64
(dp84
g2
F3.669642857142857
sg3
F3.9177215189873418
sg4
F3.5083333333333333
sg5
F3.7572815533980584
sg6
F3.7363636363636363
sg7
F4.0
sg8
F3.882978723404255
sg9
F3.707547169811321
sg10
F3.8208955223880596
sg11
F3.7857142857142856
sg12
F3.878787878787879
sg13
F3.7142857142857144
sg14
F3.816326530612245
sg15
F3.654471544715447
sg16
I0
sg17
F3.6627906976744184
sg18
F4.083333333333333
sg19
F4.314814814814815
sg20
F3.6690647482014387
sg21
F3.9444444444444446
ssI65
(dp85
g2
F4.25
sg3
F4.12
sg4
F4.055555555555555
sg5
F3.7857142857142856
sg6
I0
sg7
I0
sg8
F4.181818181818182
sg9
F3.6666666666666665
sg10
F3.625
sg11
I0
sg12
I0
sg13
F4.333333333333333
sg14
I0
sg15
F3.966666666666667
sg16
I0
sg17
F3.7
sg18
I0
sg19
F3.8333333333333335
sg20
F4.083333333333333
sg21
I0
ssI66
(dp86
g2
F4.22
sg3
F4.196666666666666
sg4
F3.7872340425531914
sg5
F3.9130434782608696
sg6
F3.923076923076923
sg7
F4.875
sg8
F4.068965517241379
sg9
F4.279661016949152
sg10
F4.1
sg11
F4.25
sg12
F4.1875
sg13
F5.0
sg14
F3.973684210526316
sg15
F3.8398058252427183
sg16
I0
sg17
F3.95578231292517
sg18
I0
sg19
F4.392857142857143
sg20
F3.9691358024691357
sg21
F4.55
ssI67
(dp87
g2
F3.5
sg3
F4.038461538461538
sg4
F4.055555555555555
sg5
F3.607142857142857
sg6
I0
sg7
I0
sg8
F4.2
sg9
F3.875
sg10
F3.0833333333333335
sg11
I0
sg12
F3.9
sg13
F4.0
sg14
F3.9
sg15
F4.119047619047619
sg16
I0
sg17
F4.323529411764706
sg18
I0
sg19
F4.333333333333333
sg20
F4.222222222222222
sg21
F3.75
ssI68
(dp88
g2
F3.1219512195121952
sg3
F3.2177914110429446
sg4
F3.198019801980198
sg5
F3.410652920962199
sg6
F2.8446601941747574
sg7
F3.8333333333333335
sg8
F3.2162162162162162
sg9
F3.3315972222222223
sg10
F3.2907801418439715
sg11
F3.037037037037037
sg12
F3.33125
sg13
F3.8596491228070176
sg14
F3.107476635514019
sg15
F3.34125
sg16
I0
sg17
F3.174858223062382
sg18
F3.787878787878788
sg19
F3.336734693877551
sg20
F3.2063253012048194
sg21
F3.3863636363636362
ssI69
(dp89
g2
F4.6
sg3
F4.315789473684211
sg4
F4.352941176470588
sg5
F4.333333333333333
sg6
F3.8333333333333335
sg7
F4.0
sg8
F4.571428571428571
sg9
F4.25
sg10
F5.0
sg11
I0
sg12
I0
sg13
I0
sg14
I0
sg15
F4.444444444444445
sg16
I0
sg17
F4.666666666666667
sg18
I0
sg19
F4.0
sg20
F4.153846153846154
sg21
F5.0
ssI70
(dp90
g2
F4.0
sg3
F4.411764705882353
sg4
F4.25
sg5
F4.375
sg6
F4.5
sg7
I0
sg8
F4.357142857142857
sg9
F4.464285714285714
sg10
F4.625
sg11
I0
sg12
F4.0
sg13
F4.0
sg14
F4.625
sg15
F3.75
sg16
I0
sg17
F4.138888888888889
sg18
F4.5
sg19
F4.3
sg20
F3.0
sg21
F4.0
ssI71
(dp91
g2
F3.5
sg3
F3.111111111111111
sg4
F3.3636363636363638
sg5
F3.8125
sg6
I0
sg7
I0
sg8
F3.2
sg9
F3.857142857142857
sg10
F4.0
sg11
F3.0
sg12
F5.0
sg13
I0
sg14
F3.8
sg15
F3.857142857142857
sg16
I0
sg17
F3.625
sg18
I0
sg19
F4.0
sg20
F3.7333333333333334
sg21
I0
ssI72
(dp92
g2
F4.375
sg3
F4.15
sg4
F4.25
sg5
F4.2
sg6
F4.333333333333333
sg7
I0
sg8
F4.5
sg9
F4.125
sg10
I0
sg11
I0
sg12
I0
sg13
F4.25
sg14
I0
sg15
F4.147058823529412
sg16
I0
sg17
F3.8333333333333335
sg18
I0
sg19
F4.375
sg20
F4.214285714285714
sg21
F4.0
ssI73
(dp93
g2
F4.375
sg3
F3.8661971830985915
sg4
F3.945945945945946
sg5
F3.9516129032258065
sg6
F3.8
sg7
I0
sg8
F4.074074074074074
sg9
F3.3513513513513513
sg10
F3.68
sg11
F3.1
sg12
F3.42
sg13
F4.038461538461538
sg14
F3.38
sg15
F4.132352941176471
sg16
I0
sg17
F3.504032258064516
sg18
I0
sg19
F4.8
sg20
F4.132352941176471
sg21
F4.75
ssI74
(dp94
g2
F4.28125
sg3
F4.276729559748428
sg4
F3.9375
sg5
F4.181818181818182
sg6
F3.6363636363636362
sg7
F4.75
sg8
F4.263888888888889
sg9
F4.25
sg10
F4.5
sg11
F4.0
sg12
I0
sg13
I0
sg14
I0
sg15
F4.071428571428571
sg16
I0
sg17
F4.351851851851852
sg18
F5.0
sg19
F4.181818181818182
sg20
F4.23469387755102
sg21
F4.1
ssI75
(dp95
g2
F2.9642857142857144
sg3
F2.98
sg4
F2.9482758620689653
sg5
F3.3846153846153846
sg6
F3.5
sg7
I0
sg8
F3.15
sg9
F3.227272727272727
sg10
F3.388888888888889
sg11
F4.333333333333333
sg12
F4.2
sg13
F4.5
sg14
F4.2
sg15
F3.2142857142857144
sg16
I0
sg17
F3.8125
sg18
I0
sg19
F2.375
sg20
F3.22
sg21
F4.5
ssI76
(dp96
g2
F3.6333333333333333
sg3
F3.1923076923076925
sg4
F3.2
sg5
F2.5172413793103448
sg6
F3.933333333333333
sg7
I0
sg8
F3.6527777777777777
sg9
F1.7272727272727273
sg10
F1.96875
sg11
F0.75
sg12
F0.5555555555555556
sg13
F3.0
sg14
F0.7692307692307693
sg15
F3.161764705882353
sg16
I0
sg17
F2.641025641025641
sg18
F3.5
sg19
F3.111111111111111
sg20
F3.576923076923077
sg21
F2.8
ssI77
(dp97
g2
F2.125
sg3
F3.2777777777777777
sg4
F4.045454545454546
sg5
F4.928571428571429
sg6
I0
sg7
I0
sg8
F3.5
sg9
F3.1666666666666665
sg10
F4.8
sg11
I0
sg12
F5.0
sg13
F4.416666666666667
sg14
F5.0
sg15
F4.421052631578948
sg16
I0
sg17
F3.625
sg18
I0
sg19
I0
sg20
F2.9375
sg21
I0
ssI78
(dp98
g2
F2.3333333333333335
sg3
F2.8333333333333335
sg4
F3.026315789473684
sg5
F3.0
sg6
F2.5
sg7
I0
sg8
F3.3333333333333335
sg9
F3.5
sg10
F2.5
sg11
F1.5
sg12
F2.25
sg13
F4.0
sg14
F2.5
sg15
F3.3088235294117645
sg16
I0
sg17
F3.1607142857142856
sg18
I0
sg19
F3.0
sg20
F3.14
sg21
F2.0
ssI79
(dp99
g2
F4.5
sg3
F3.9565217391304346
sg4
F4.357142857142857
sg5
F4.25
sg6
F4.166666666666667
sg7
F5.0
sg8
F4.5
sg9
F4.0
sg10
F4.0
sg11
F4.5
sg12
I0
sg13
I0
sg14
I0
sg15
F4.2
sg16
I0
sg17
F4.142857142857143
sg18
F4.333333333333333
sg19
F4.0
sg20
F4.217391304347826
sg21
I0
ssI80
(dp100
g2
F4.472222222222222
sg3
F4.2785714285714285
sg4
F4.1909090909090905
sg5
F4.196969696969697
sg6
F4.127659574468085
sg7
F4.0
sg8
F4.430232558139535
sg9
F4.375
sg10
F4.346153846153846
sg11
I0
sg12
F4.0
sg13
F4.270833333333333
sg14
F4.0
sg15
F4.357142857142857
sg16
I0
sg17
F3.8181818181818183
sg18
I0
sg19
F4.083333333333333
sg20
F4.2923728813559325
sg21
I0
ssI81
(dp101
g2
F4.0
sg3
F2.875
sg4
F3.8333333333333335
sg5
F2.4545454545454546
sg6
I0
sg7
I0
sg8
F2.7142857142857144
sg9
F2.3333333333333335
sg10
F1.0
sg11
F2.0
sg12
F2.0
sg13
F2.5
sg14
F2.0
sg15
F2.769230769230769
sg16
I0
sg17
F1.875
sg18
I0
sg19
F2.6666666666666665
sg20
F3.0833333333333335
sg21
I0
ssI82
(dp102
g2
F3.142857142857143
sg3
F3.3229166666666665
sg4
F3.526315789473684
sg5
F3.3716216216216215
sg6
F3.357142857142857
sg7
F1.0
sg8
F3.451923076923077
sg9
F3.3823529411764706
sg10
F3.25
sg11
F3.2142857142857144
sg12
F3.0384615384615383
sg13
F3.25
sg14
F2.608695652173913
sg15
F3.5478260869565217
sg16
I0
sg17
F3.4734513274336285
sg18
F3.0
sg19
F3.857142857142857
sg20
F3.303030303030303
sg21
F3.625
ssI83
(dp103
g2
F3.3333333333333335
sg3
F3.6301369863013697
sg4
F3.4
sg5
F3.1818181818181817
sg6
F2.5
sg7
I0
sg8
F3.392857142857143
sg9
F3.675
sg10
F3.2
sg11
F4.125
sg12
F3.45
sg13
F3.727272727272727
sg14
F3.1666666666666665
sg15
F3.0
sg16
I0
sg17
F3.0
sg18
F2.0
sg19
F3.4375
sg20
F3.107142857142857
sg21
F0.5
ssI84
(dp104
g2
F3.933333333333333
sg3
F3.8848484848484848
sg4
F3.357142857142857
sg5
F3.56
sg6
F3.5454545454545454
sg7
F3.6666666666666665
sg8
F3.727272727272727
sg9
F3.6989247311827955
sg10
F3.5625
sg11
F3.764705882352941
sg12
F3.0
sg13
F5.0
sg14
F3.3529411764705883
sg15
F3.5625
sg16
I0
sg17
F3.4871794871794872
sg18
F3.75
sg19
F4.352941176470588
sg20
F3.574468085106383
sg21
F4.0
ssI85
(dp105
g2
F3.6666666666666665
sg3
F3.8333333333333335
sg4
F2.0
sg5
F5.0
sg6
I0
sg7
I0
sg8
F2.0
sg9
F4.0
sg10
F5.0
sg11
I0
sg12
I0
sg13
I0
sg14
F5.0
sg15
F1.0
sg16
I0
sg17
F3.3333333333333335
sg18
I0
sg19
F3.6666666666666665
sg20
F3.0
sg21
I0
ssI86
(dp106
g2
F4.25
sg3
F3.9444444444444446
sg4
F3.911764705882353
sg5
F3.9107142857142856
sg6
F4.0
sg7
I0
sg8
F4.111111111111111
sg9
F3.8529411764705883
sg10
F3.9444444444444446
sg11
F4.0
sg12
F4.041666666666667
sg13
F3.857142857142857
sg14
F4.045454545454546
sg15
F3.8548387096774195
sg16
I0
sg17
F4.071428571428571
sg18
I0
sg19
F3.1666666666666665
sg20
F3.9166666666666665
sg21
F4.0
ssI87
(dp107
g2
F4.0
sg3
F3.909090909090909
sg4
F3.642857142857143
sg5
F3.9
sg6
F3.5
sg7
I0
sg8
I0
sg9
F4.25
sg10
F4.3
sg11
F4.0
sg12
F4.333333333333333
sg13
I0
sg14
F3.8
sg15
F3.0
sg16
I0
sg17
F4.222222222222222
sg18
I0
sg19
I0
sg20
F3.6666666666666665
sg21
I0
ssI88
(dp108
g2
F4.25
sg3
F4.166666666666667
sg4
F3.7857142857142856
sg5
F4.571428571428571
sg6
F4.166666666666667
sg7
I0
sg8
F4.5588235294117645
sg9
F3.5
sg10
F4.7
sg11
I0
sg12
I0
sg13
F4.666666666666667
sg14
F0.5
sg15
F4.235294117647059
sg16
I0
sg17
F3.2083333333333335
sg18
I0
sg19
F4.25
sg20
F4.309523809523809
sg21
F4.0
ssI89
(dp109
g2
F3.7
sg3
F3.410377358490566
sg4
F3.378787878787879
sg5
F3.5229885057471266
sg6
F4.235294117647059
sg7
I0
sg8
F3.3181818181818183
sg9
F3.090909090909091
sg10
F3.4649122807017543
sg11
F3.0526315789473686
sg12
F4.022222222222222
sg13
F4.125
sg14
F3.893939393939394
sg15
F3.3771929824561404
sg16
F3.0
sg17
F3.465481171548117
sg18
F4.5
sg19
F3.4615384615384617
sg20
F3.738095238095238
sg21
F4.5
ssI90
(dp110
g2
F4.0
sg3
F4.212121212121212
sg4
F4.0
sg5
F3.75
sg6
F4.0
sg7
I0
sg8
F4.4
sg9
F4.277777777777778
sg10
F3.5
sg11
F4.333333333333333
sg12
F3.0
sg13
I0
sg14
F3.5
sg15
F4.0
sg16
I0
sg17
F4.045454545454546
sg18
F4.25
sg19
F4.0
sg20
F4.0
sg21
I0
ssI91
(dp111
g2
F3.75
sg3
F3.325870646766169
sg4
F3.7142857142857144
sg5
F3.6094890510948905
sg6
F3.8263157894736843
sg7
F3.5
sg8
F3.53
sg9
F2.9594594594594597
sg10
F3.8384615384615386
sg11
F3.0952380952380953
sg12
F3.9714285714285715
sg13
F3.7857142857142856
sg14
F3.3
sg15
F3.6097560975609757
sg16
I0
sg17
F3.0870646766169156
sg18
F3.5
sg19
F3.3333333333333335
sg20
F3.669230769230769
sg21
F3.5833333333333335
ssI92
(dp112
g2
F4.0
sg3
F3.85
sg4
F3.6666666666666665
sg5
F3.875
sg6
F3.8333333333333335
sg7
I0
sg8
F3.0
sg9
F4.375
sg10
F4.5
sg11
F4.5
sg12
F4.0
sg13
F4.5
sg14
F4.0
sg15
F3.5
sg16
I0
sg17
F4.111111111111111
sg18
I0
sg19
F4.25
sg20
F3.5
sg21
I0
ssI93
(dp113
g2
F4.5
sg3
F4.5
sg4
F4.5
sg5
F4.196428571428571
sg6
F4.333333333333333
sg7
I0
sg8
F4.375
sg9
F4.3478260869565215
sg10
F4.2631578947368425
sg11
F4.0
sg12
F3.75
sg13
F5.0
sg14
F4.0588235294117645
sg15
F4.326086956521739
sg16
I0
sg17
F4.111111111111111
sg18
I0
sg19
F5.0
sg20
F4.363636363636363
sg21
F4.0
ssI94
(dp114
g2
F3.3333333333333335
sg3
F3.3333333333333335
sg4
F3.3333333333333335
sg5
F3.2777777777777777
sg6
F2.0
sg7
I0
sg8
F3.1818181818181817
sg9
F2.3
sg10
F2.8333333333333335
sg11
F4.0
sg12
F4.0
sg13
F4.0
sg14
F3.6666666666666665
sg15
F3.05
sg16
I0
sg17
F2.727272727272727
sg18
I0
sg19
F3.75
sg20
F3.1904761904761907
sg21
F3.3333333333333335
ssI95
(dp115
g2
F4.25
sg3
F4.2214285714285715
sg4
F4.267241379310345
sg5
F4.173913043478261
sg6
F3.3333333333333335
sg7
F4.0
sg8
F4.142857142857143
sg9
F4.172413793103448
sg10
F4.0
sg11
F3.6666666666666665
sg12
F4.7
sg13
F4.125
sg14
F4.2
sg15
F4.177966101694915
sg16
I0
sg17
F3.85
sg18
F4.5
sg19
F4.25
sg20
F4.0978260869565215
sg21
I0
ssI96
(dp116
g2
F4.428571428571429
sg3
F3.90625
sg4
F3.8125
sg5
F3.8518518518518516
sg6
F4.0
sg7
F5.0
sg8
F4.5
sg9
F3.5454545454545454
sg10
F3.625
sg11
F4.0
sg12
F5.0
sg13
F5.0
sg14
F4.2
sg15
F3.864864864864865
sg16
I0
sg17
F3.95
sg18
I0
sg19
F4.0
sg20
F3.814814814814815
sg21
F4.0
ssI97
(dp117
g2
I0
sg3
F3.9166666666666665
sg4
F4.428571428571429
sg5
F4.285714285714286
sg6
F5.0
sg7
I0
sg8
F4.5
sg9
F4.4
sg10
F5.0
sg11
I0
sg12
F4.5
sg13
F4.0
sg14
F4.333333333333333
sg15
F4.181818181818182
sg16
I0
sg17
F4.111111111111111
sg18
I0
sg19
F3.75
sg20
F4.545454545454546
sg21
I0
ssI98
(dp118
g2
F4.6
sg3
F3.875
sg4
F3.68
sg5
F3.6
sg6
F4.2727272727272725
sg7
I0
sg8
F4.25
sg9
F3.875
sg10
F3.4210526315789473
sg11
F3.7857142857142856
sg12
F3.975
sg13
F3.2916666666666665
sg14
F3.85
sg15
F3.625
sg16
I0
sg17
F4.0
sg18
I0
sg19
F4.666666666666667
sg20
F3.90625
sg21
I0
ssI99
(dp119
g2
F3.6666666666666665
sg3
F4.388888888888889
sg4
F2.8333333333333335
sg5
F4.0
sg6
F3.3333333333333335
sg7
I0
sg8
F4.142857142857143
sg9
F4.7
sg10
I0
sg11
F5.0
sg12
F5.0
sg13
F5.0
sg14
F5.0
sg15
F3.8095238095238093
sg16
I0
sg17
F3.869565217391304
sg18
I0
sg19
F3.5
sg20
F4.0
sg21
F4.333333333333333
ssI100
(dp120
g2
F3.7
sg3
F3.97972972972973
sg4
F3.5714285714285716
sg5
F4.029411764705882
sg6
F2.4
sg7
I0
sg8
F4.125
sg9
F4.0886075949367084
sg10
F3.95
sg11
F4.083333333333333
sg12
F3.5
sg13
F4.5
sg14
F4.0
sg15
F3.980769230769231
sg16
I0
sg17
F3.929411764705882
sg18
I0
sg19
F4.0
sg20
F3.6315789473684212
sg21
F4.3
ssI101
(dp121
g2
F4.0
sg3
F4.083333333333333
sg4
F3.857142857142857
sg5
F3.3333333333333335
sg6
F3.6
sg7
I0
sg8
F4.0
sg9
F3.0
sg10
F3.6666666666666665
sg11
F4.0
sg12
F4.0
sg13
F4.0
sg14
F4.0
sg15
F3.3333333333333335
sg16
I0
sg17
F3.36
sg18
I0
sg19
I0
sg20
F3.5
sg21
I0
ssI102
(dp122
g2
F3.6666666666666665
sg3
F3.526315789473684
sg4
F2.8333333333333335
sg5
F3.142857142857143
sg6
F3.5
sg7
I0
sg8
F3.357142857142857
sg9
F3.2857142857142856
sg10
I0
sg11
F4.0
sg12
F4.0
sg13
F3.5
sg14
F3.75
sg15
F3.125
sg16
I0
sg17
F3.5714285714285716
sg18
I0
sg19
F3.6666666666666665
sg20
F3.3333333333333335
sg21
F3.4
ssI103
(dp123
g2
F3.8461538461538463
sg3
F4.163793103448276
sg4
F3.4615384615384617
sg5
F3.5
sg6
F3.6
sg7
F4.75
sg8
F4.388888888888889
sg9
F3.8363636363636364
sg10
F3.636986301369863
sg11
F3.8703703703703702
sg12
F3.6545454545454548
sg13
F3.15
sg14
F3.6292134831460676
sg15
F3.6686046511627906
sg16
I0
sg17
F3.8205128205128207
sg18
F3.5
sg19
F4.166666666666667
sg20
F4.0396825396825395
sg21
F4.4375
ssI104
(dp124
g2
F3.5
sg3
F3.5472972972972974
sg4
F3.2580645161290325
sg5
F3.5384615384615383
sg6
F2.375
sg7
F4.5
sg8
F3.5
sg9
F3.74468085106383
sg10
F3.6847826086956523
sg11
F3.7439024390243905
sg12
F3.857142857142857
sg13
F3.857142857142857
sg14
F3.75
sg15
F3.125
sg16
I0
sg17
F3.5718232044198897
sg18
I0
sg19
F3.3125
sg20
F3.259259259259259
sg21
F2.8333333333333335
ssI105
(dp125
g2
F4.25
sg3
F4.1602209944751385
sg4
F3.9627659574468086
sg5
F3.932142857142857
sg6
F4.066666666666666
sg7
F4.166666666666667
sg8
F4.2293233082706765
sg9
F4.012096774193548
sg10
F3.9767441860465116
sg11
F3.892857142857143
sg12
F4.268518518518518
sg13
F3.9242424242424243
sg14
F4.112903225806452
sg15
F3.894578313253012
sg16
F4.833333333333333
sg17
F4.03265306122449
sg18
F4.454545454545454
sg19
F4.113636363636363
sg20
F4.071428571428571
sg21
F4.0
ssI106
(dp126
g2
F4.5
sg3
F4.388888888888889
sg4
F3.9166666666666665
sg5
F4.44
sg6
F3.5
sg7
I0
sg8
F5.0
sg9
F5.0
sg10
F4.5
sg11
I0
sg12
F4.25
sg13
F4.7727272727272725
sg14
F4.1
sg15
F4.2894736842105265
sg16
I0
sg17
F4.666666666666667
sg18
I0
sg19
I0
sg20
F4.071428571428571
sg21
I0
ssI107
(dp127
g2
F4.0
sg3
F4.235294117647059
sg4
F3.4
sg5
F3.769230769230769
sg6
F4.0
sg7
I0
sg8
F3.7142857142857144
sg9
F4.2
sg10
F4.0
sg11
I0
sg12
F4.0
sg13
F5.0
sg14
F4.0
sg15
F3.6363636363636362
sg16
I0
sg17
F3.6923076923076925
sg18
I0
sg19
F4.333333333333333
sg20
F3.6666666666666665
sg21
F4.333333333333333
ssI108
(dp128
g2
F4.75
sg3
F4.191489361702128
sg4
F4.230769230769231
sg5
F4.0
sg6
F2.0
sg7
I0
sg8
F4.6
sg9
F3.9743589743589745
sg10
F3.0
sg11
F5.0
sg12
F3.5
sg13
F3.0
sg14
F4.0
sg15
F3.6
sg16
I0
sg17
F4.107142857142857
sg18
I0
sg19
F3.5
sg20
F3.8333333333333335
sg21
F5.0
ssI109
(dp129
g2
F3.4
sg3
F3.390625
sg4
F2.923076923076923
sg5
F2.888888888888889
sg6
F3.2
sg7
F3.0
sg8
F3.590909090909091
sg9
F3.375
sg10
F2.888888888888889
sg11
F3.1666666666666665
sg12
F3.0
sg13
F3.0
sg14
F3.0
sg15
F3.1785714285714284
sg16
I0
sg17
F3.04
sg18
F3.0
sg19
F3.8333333333333335
sg20
F3.2972972972972974
sg21
F3.3333333333333335
ssI110
(dp130
g2
F3.875
sg3
F3.9310344827586206
sg4
F2.7
sg5
F3.7
sg6
F2.25
sg7
I0
sg8
F4.0
sg9
F3.8125
sg10
I0
sg11
I0
sg12
I0
sg13
I0
sg14
F2.0
sg15
F3.3
sg16
I0
sg17
F3.75
sg18
F5.0
sg19
F3.9166666666666665
sg20
F3.6333333333333333
sg21
I0
ssI111
(dp131
g2
F2.842857142857143
sg3
F3.3260869565217392
sg4
F2.8823529411764706
sg5
F3.2767857142857144
sg6
F2.0405405405405403
sg7
I0
sg8
F3.588235294117647
sg9
F3.2542372881355934
sg10
F3.184931506849315
sg11
F3.3035714285714284
sg12
F3.1475409836065573
sg13
F2.933333333333333
sg14
F3.2384615384615385
sg15
F3.4398496240601504
sg16
F3.0
sg17
F3.415766738660907
sg18
F4.2631578947368425
sg19
F4.1
sg20
F2.88
sg21
F3.375
ssI112
(dp132
g2
F4.6
sg3
F3.56
sg4
F4.194444444444445
sg5
F3.880952380952381
sg6
F4.25
sg7
I0
sg8
F3.8214285714285716
sg9
F2.1666666666666665
sg10
F3.5
sg11
F3.5
sg12
F3.5
sg13
F4.583333333333333
sg14
F3.0
sg15
F4.111111111111111
sg16
I0
sg17
F2.642857142857143
sg18
I0
sg19
F3.6
sg20
F3.75
sg21
F4.0
ssI113
(dp133
g2
F3.55
sg3
F3.8152173913043477
sg4
F3.25
sg5
F4.4
sg6
F3.3333333333333335
sg7
F4.5
sg8
F3.8125
sg9
F3.7411764705882353
sg10
F3.6666666666666665
sg11
F4.2
sg12
F4.0
sg13
I0
sg14
F4.375
sg15
F3.125
sg16
I0
sg17
F3.5806451612903225
sg18
I0
sg19
F4.6
sg20
F3.46875
sg21
I0
ssI114
(dp134
g2
F2.25
sg3
F3.7142857142857144
sg4
F3.3
sg5
F3.282608695652174
sg6
F4.0
sg7
I0
sg8
F3.8333333333333335
sg9
F3.0
sg10
F3.269230769230769
sg11
F3.5
sg12
F3.1
sg13
F3.1
sg14
F3.25
sg15
F3.25
sg16
I0
sg17
F3.5454545454545454
sg18
I0
sg19
I0
sg20
F3.6
sg21
I0
ssI115
(dp135
g2
F4.090909090909091
sg3
F3.8846153846153846
sg4
F3.8947368421052633
sg5
F3.742857142857143
sg6
F3.8
sg7
F4.0
sg8
F3.642857142857143
sg9
F2.9
sg10
F3.3333333333333335
sg11
F4.0
sg12
F3.923076923076923
sg13
F4.0
sg14
F3.9285714285714284
sg15
F3.75
sg16
I0
sg17
F3.7058823529411766
sg18
I0
sg19
F4.142857142857143
sg20
F3.8181818181818183
sg21
F4.285714285714286
ssI116
(dp136
g2
F3.8
sg3
F3.1470588235294117
sg4
F3.576923076923077
sg5
F3.5
sg6
F3.0625
sg7
I0
sg8
F3.1818181818181817
sg9
F3.5806451612903225
sg10
F3.2222222222222223
sg11
F3.857142857142857
sg12
F3.5
sg13
F1.0
sg14
F3.2
sg15
F3.7666666666666666
sg16
I0
sg17
F3.393939393939394
sg18
I0
sg19
F3.0
sg20
F3.522727272727273
sg21
F4.5
ssI117
(dp137
g2
F3.3333333333333335
sg3
F3.4583333333333335
sg4
F3.1875
sg5
F3.176470588235294
sg6
F3.8
sg7
I0
sg8
F3.24
sg9
F3.4390243902439024
sg10
F3.3333333333333335
sg11
F3.769230769230769
sg12
F3.7142857142857144
sg13
F4.0
sg14
F3.52
sg15
F3.111111111111111
sg16
I0
sg17
F3.3559322033898304
sg18
I0
sg19
F3.888888888888889
sg20
F3.2127659574468086
sg21
F3.8
ssI118
(dp138
g2
F3.5
sg3
F4.0
sg4
F4.0
sg5
F3.3333333333333335
sg6
F3.0
sg7
I0
sg8
F3.888888888888889
sg9
F2.5
sg10
I0
sg11
I0
sg12
I0
sg13
I0
sg14
I0
sg15
F3.5
sg16
I0
sg17
F3.5
sg18
I0
sg19
F4.0
sg20
F3.8333333333333335
sg21
F4.0
ssI119
(dp139
g2
F4.2727272727272725
sg3
F4.284090909090909
sg4
F3.986842105263158
sg5
F4.176056338028169
sg6
F4.0
sg7
F4.0
sg8
F4.28125
sg9
F4.305555555555555
sg10
F4.0
sg11
F5.0
sg12
F4.140625
sg13
F4.2272727272727275
sg14
F4.115384615384615
sg15
F4.137755102040816
sg16
I0
sg17
F4.070422535211268
sg18
F3.875
sg19
F4.416666666666667
sg20
F4.156716417910448
sg21
F3.875
ssI120
(dp140
g2
F3.0
sg3
F3.5714285714285716
sg4
F3.75
sg5
F3.5555555555555554
sg6
F3.0
sg7
I0
sg8
F5.0
sg9
F3.0
sg10
F2.6666666666666665
sg11
F2.6666666666666665
sg12
F3.0
sg13
I0
sg14
F3.0
sg15
F3.5714285714285716
sg16
I0
sg17
F3.2
sg18
I0
sg19
I0
sg20
F3.3333333333333335
sg21
I0
ssI121
(dp141
g2
F3.0
sg3
F3.423076923076923
sg4
F3.0
sg5
F3.0
sg6
F3.0
sg7
I0
sg8
F3.9
sg9
F3.411764705882353
sg10
F2.6
sg11
F3.0
sg12
F3.5
sg13
F3.0
sg14
F3.5
sg15
F3.25
sg16
I0
sg17
F3.2
sg18
F3.0
sg19
F3.4
sg20
F3.3
sg21
F3.25
ssI122
(dp142
g2
F4.648148148148148
sg3
F4.65625
sg4
F4.48125
sg5
F4.414634146341464
sg6
F4.4743589743589745
sg7
F5.0
sg8
F4.661016949152542
sg9
F4.480769230769231
sg10
F4.472222222222222
sg11
F4.875
sg12
F4.608695652173913
sg13
F4.238095238095238
sg14
F4.552631578947368
sg15
F4.397058823529412
sg16
I0
sg17
F4.547008547008547
sg18
F4.5
sg19
F4.545454545454546
sg20
F4.50561797752809
sg21
F4.5625
ssI123
(dp143
g2
F4.2
sg3
F4.044117647058823
sg4
F4.0625
sg5
F3.892857142857143
sg6
F4.0
sg7
I0
sg8
F4.026315789473684
sg9
F3.8333333333333335
sg10
F3.8
sg11
I0
sg12
F4.0
sg13
F4.25
sg14
F4.25
sg15
F3.9375
sg16
I0
sg17
F3.9
sg18
I0
sg19
F4.166666666666667
sg20
F4.064516129032258
sg21
F4.5
ssI124
(dp144
g2
F3.8333333333333335
sg3
F4.413043478260869
sg4
F3.625
sg5
F4.125
sg6
F2.3333333333333335
sg7
F4.0
sg8
F4.363636363636363
sg9
F4.285714285714286
sg10
F3.75
sg11
I0
sg12
F4.3
sg13
I0
sg14
F4.2
sg15
F3.6666666666666665
sg16
I0
sg17
F3.9
sg18
I0
sg19
F4.25
sg20
F3.8846153846153846
sg21
I0
ssI125
(dp145
g2
F4.14
sg3
F4.003164556962025
sg4
F3.755434782608696
sg5
F3.6216216216216215
sg6
F3.7413793103448274
sg7
F3.8333333333333335
sg8
F3.8727272727272726
sg9
F3.9661016949152543
sg10
F3.8452380952380953
sg11
F3.9166666666666665
sg12
F3.925925925925926
sg13
F3.6136363636363638
sg14
F3.6578947368421053
sg15
F3.706140350877193
sg16
F4.5
sg17
F3.921232876712329
sg18
F2.5
sg19
F3.727272727272727
sg20
F3.8440860215053765
sg21
F3.875
ssI126
(dp146
g2
F5.0
sg3
F3.5
sg4
F2.6666666666666665
sg5
F3.25
sg6
F2.0
sg7
I0
sg8
F3.3
sg9
F4.2
sg10
F3.6666666666666665
sg11
F4.0
sg12
F4.0
sg13
F4.333333333333333
sg14
F3.4
sg15
F3.3125
sg16
I0
sg17
F3.0
sg18
I0
sg19
F3.6666666666666665
sg20
F3.5
sg21
F4.0
ssI127
(dp147
g2
F3.5
sg3
F2.9583333333333335
sg4
F1.0
sg5
F0.5
sg6
F1.0
sg7
F5.0
sg8
F4.0
sg9
F2.75
sg10
F2.0
sg11
F4.0
sg12
F0.5
sg13
I0
sg14
F1.25
sg15
F4.0
sg16
I0
sg17
F3.3333333333333335
sg18
I0
sg19
F5.0
sg20
F2.6666666666666665
sg21
F4.0
ssI128
(dp148
g2
F4.222222222222222
sg3
F4.363636363636363
sg4
F4.333333333333333
sg5
F4.5
sg6
F4.0
sg7
F4.0
sg8
F4.142857142857143
sg9
F4.7
sg10
F4.0
sg11
F5.0
sg12
I0
sg13
I0
sg14
I0
sg15
F4.3
sg16
I0
sg17
F4.6
sg18
I0
sg19
F5.0
sg20
F4.2
sg21
I0
ssI129
(dp149
g2
F3.5454545454545454
sg3
F3.986842105263158
sg4
F3.895348837209302
sg5
F3.920289855072464
sg6
F3.5
sg7
F4.5
sg8
F4.071428571428571
sg9
F4.125
sg10
F4.083333333333333
sg11
F4.055555555555555
sg12
F4.113636363636363
sg13
F3.9375
sg14
F3.9444444444444446
sg15
F4.0131578947368425
sg16
I0
sg17
F3.858974358974359
sg18
I0
sg19
F4.25
sg20
F3.824324324324324
sg21
I0
ssI130
(dp150
g2
I0
sg3
F3.8461538461538463
sg4
F3.5
sg5
F3.1818181818181817
sg6
F4.0
sg7
I0
sg8
F3.5714285714285716
sg9
F3.0
sg10
F3.0
sg11
F2.0
sg12
F2.3333333333333335
sg13
F3.0
sg14
F2.75
sg15
F3.4545454545454546
sg16
I0
sg17
F3.5
sg18
I0
sg19
F4.5
sg20
F3.6
sg21
F3.0
ssI131
(dp151
g2
F3.6
sg3
F3.5
sg4
F3.088235294117647
sg5
F3.375
sg6
F3.0
sg7
F4.0
sg8
F3.782608695652174
sg9
F3.4166666666666665
sg10
F3.4
sg11
I0
sg12
F3.5
sg13
F4.0
sg14
I0
sg15
F3.261904761904762
sg16
I0
sg17
F3.3333333333333335
sg18
F3.0
sg19
F3.2142857142857144
sg20
F3.4285714285714284
sg21
F2.0
ssI132
(dp152
g2
F3.2
sg3
F3.1920903954802258
sg4
F2.8780487804878048
sg5
F2.7890625
sg6
F2.8
sg7
F3.875
sg8
F3.2413793103448274
sg9
F3.1271929824561404
sg10
F3.0964912280701755
sg11
F3.4444444444444446
sg12
F2.90625
sg13
F3.45
sg14
F2.8444444444444446
sg15
F2.919642857142857
sg16
I0
sg17
F2.91025641025641
sg18
F2.75
sg19
F3.357142857142857
sg20
F3.140845070422535
sg21
F2.5
ssI133
(dp153
g2
F3.6666666666666665
sg3
F3.0
sg4
F3.25
sg5
F2.5714285714285716
sg6
F2.5
sg7
I0
sg8
F2.6666666666666665
sg9
F3.25
sg10
F3.0
sg11
F3.0
sg12
F3.0
sg13
F3.0
sg14
F3.0
sg15
F2.642857142857143
sg16
I0
sg17
F3.0
sg18
I0
sg19
F3.6666666666666665
sg20
F3.0
sg21
F2.0
ssI134
(dp154
g2
F3.5
sg3
F3.7857142857142856
sg4
F3.5
sg5
F3.4166666666666665
sg6
F4.0
sg7
I0
sg8
F3.75
sg9
F3.3333333333333335
sg10
F3.6666666666666665
sg11
F3.5
sg12
F3.4
sg13
F4.0
sg14
F3.4
sg15
F3.4705882352941178
sg16
I0
sg17
F3.111111111111111
sg18
I0
sg19
F4.5
sg20
F3.5833333333333335
sg21
F4.0
ssI135
(dp155
g2
F3.75
sg3
F3.755813953488372
sg4
F3.508771929824561
sg5
F3.5
sg6
F3.8181818181818183
sg7
F3.0
sg8
F3.627450980392157
sg9
F3.6285714285714286
sg10
F3.909090909090909
sg11
F4.111111111111111
sg12
F4.0
sg13
I0
sg14
F3.7777777777777777
sg15
F3.4220183486238533
sg16
I0
sg17
F3.6611570247933884
sg18
F4.5
sg19
F3.875
sg20
F3.520408163265306
sg21
F4.0
ssI136
(dp156
g2
F4.2
sg3
F3.6578947368421053
sg4
F2.625
sg5
F3.1739130434782608
sg6
F3.111111111111111
sg7
I0
sg8
F3.611111111111111
sg9
F3.7777777777777777
sg10
F3.4444444444444446
sg11
F3.5
sg12
F3.0
sg13
F3.3333333333333335
sg14
F2.7
sg15
F3.15
sg16
I0
sg17
F3.1627906976744184
sg18
I0
sg19
F4.0
sg20
F3.4838709677419355
sg21
F2.5
ssI137
(dp157
g2
F4.181818181818182
sg3
F4.0394736842105265
sg4
F3.5555555555555554
sg5
F3.893939393939394
sg6
F3.769230769230769
sg7
F4.1
sg8
F3.775
sg9
F3.892857142857143
sg10
F4.035714285714286
sg11
F4.0
sg12
F3.8
sg13
F3.5
sg14
F4.0
sg15
F3.727272727272727
sg16
I0
sg17
F3.9027777777777777
sg18
F4.416666666666667
sg19
F4.2105263157894735
sg20
F3.6724137931034484
sg21
F4.0
ssI138
(dp158
g2
F0.5
sg3
F3.4
sg4
F4.0
sg5
F4.083333333333333
sg6
I0
sg7
I0
sg8
F1.6666666666666667
sg9
F4.0
sg10
F3.3333333333333335
sg11
I0
sg12
F4.166666666666667
sg13
F5.0
sg14
F4.166666666666667
sg15
F3.75
sg16
I0
sg17
F4.055555555555555
sg18
I0
sg19
F1.5
sg20
F1.8333333333333333
sg21
I0
ssI139
(dp159
g2
F2.0869565217391304
sg3
F2.1491228070175437
sg4
F2.0223880597014925
sg5
F2.4207317073170733
sg6
F1.5909090909090908
sg7
I0
sg8
F2.176470588235294
sg9
F1.875
sg10
F2.418918918918919
sg11
F2.5
sg12
F2.466666666666667
sg13
F2.4545454545454546
sg14
F2.25
sg15
F2.2181818181818183
sg16
I0
sg17
F2.0306122448979593
sg18
I0
sg19
F2.5454545454545454
sg20
F1.9545454545454546
sg21
F2.6666666666666665
ssI140
(dp160
g2
F3.2613636363636362
sg3
F3.587818696883853
sg4
F3.423076923076923
sg5
F3.5166666666666666
sg6
F3.5
sg7
F3.5
sg8
F3.5393700787401574
sg9
F3.6315789473684212
sg10
F3.370967741935484
sg11
F3.576923076923077
sg12
F3.15625
sg13
F4.2
sg14
F3.521276595744681
sg15
F3.4691011235955056
sg16
I0
sg17
F3.3421052631578947
sg18
F3.5
sg19
F3.8046875
sg20
F3.385869565217391
sg21
F3.7875
ssI141
(dp161
g2
F3.3333333333333335
sg3
F3.7403846153846154
sg4
F3.6129032258064515
sg5
F3.675
sg6
F3.3333333333333335
sg7
F2.5
sg8
F3.55
sg9
F3.519230769230769
sg10
F3.716666666666667
sg11
F3.3125
sg12
F3.7916666666666665
sg13
F3.736842105263158
sg14
F3.7291666666666665
sg15
F3.490740740740741
sg16
I0
sg17
F3.48989898989899
sg18
I0
sg19
F3.3333333333333335
sg20
F3.5
sg21
F4.25
ssI142
(dp162
g2
F4.5
sg3
F3.888888888888889
sg4
F3.0
sg5
F3.7777777777777777
sg6
F5.0
sg7
I0
sg8
F3.888888888888889
sg9
F4.0
sg10
F4.0
sg11
F4.333333333333333
sg12
F4.333333333333333
sg13
F4.333333333333333
sg14
F4.25
sg15
F3.3076923076923075
sg16
I0
sg17
F4.111111111111111
sg18
I0
sg19
F4.666666666666667
sg20
F3.736842105263158
sg21
F4.0
ssI143
(dp163
g2
F2.0
sg3
F3.2777777777777777
sg4
F3.125
sg5
F3.5
sg6
F1.0
sg7
I0
sg8
F3.5
sg9
F3.451219512195122
sg10
F3.4
sg11
F3.3333333333333335
sg12
F3.8181818181818183
sg13
F3.2
sg14
F3.727272727272727
sg15
F2.1666666666666665
sg16
I0
sg17
F3.341666666666667
sg18
F5.0
sg19
F4.5
sg20
F2.6666666666666665
sg21
I0
ssI144
(dp164
g2
F4.0
sg3
F3.798076923076923
sg4
F3.0
sg5
F3.6666666666666665
sg6
F3.9166666666666665
sg7
I0
sg8
F3.710526315789474
sg9
F3.7125
sg10
F3.7777777777777777
sg11
F4.375
sg12
F4.076923076923077
sg13
F3.8333333333333335
sg14
F3.823529411764706
sg15
F3.418918918918919
sg16
I0
sg17
F3.463636363636364
sg18
F3.5
sg19
F3.6666666666666665
sg20
F3.4838709677419355
sg21
F3.625
ssI145
(dp165
g2
F5.0
sg3
F3.4444444444444446
sg4
F2.75
sg5
F3.272727272727273
sg6
I0
sg7
I0
sg8
F3.5714285714285716
sg9
F3.3333333333333335
sg10
F4.5
sg11
F4.0
sg12
F4.333333333333333
sg13
F3.5
sg14
F4.333333333333333
sg15
F2.875
sg16
I0
sg17
F3.375
sg18
I0
sg19
F4.0
sg20
F3.5555555555555554
sg21
F4.0
ssI146
(dp166
g2
F3.6
sg3
F3.4583333333333335
sg4
F2.875
sg5
F3.5
sg6
F3.3333333333333335
sg7
I0
sg8
F3.0
sg9
F3.25
sg10
F3.4
sg11
I0
sg12
F3.75
sg13
F3.0
sg14
F3.2142857142857144
sg15
F2.1
sg16
I0
sg17
F3.125
sg18
I0
sg19
F3.0
sg20
F2.8636363636363638
sg21
I0
ssI147
(dp167
g2
I0
sg3
F2.9285714285714284
sg4
F4.5
sg5
F4.75
sg6
F4.5
sg7
I0
sg8
F4.333333333333333
sg9
F2.857142857142857
sg10
F3.0
sg11
F3.0
sg12
F3.0
sg13
I0
sg14
F3.0
sg15
F3.0
sg16
I0
sg17
F3.576923076923077
sg18
I0
sg19
F2.75
sg20
F3.5
sg21
F4.5
ssI148
(dp168
g2
F3.1666666666666665
sg3
F3.75
sg4
F3.65
sg5
F3.661290322580645
sg6
I0
sg7
I0
sg8
F2.5
sg9
F4.115384615384615
sg10
F3.7045454545454546
sg11
F4.1
sg12
F3.710526315789474
sg13
F3.75
sg14
F3.769230769230769
sg15
F3.5555555555555554
sg16
I0
sg17
F3.7142857142857144
sg18
I0
sg19
F4.25
sg20
F3.5833333333333335
sg21
I0
ssI149
(dp169
g2
F2.5
sg3
F2.857142857142857
sg4
F2.7454545454545456
sg5
F2.5
sg6
F3.8333333333333335
sg7
I0
sg8
F2.3333333333333335
sg9
F4.0
sg10
F2.0
sg11
I0
sg12
F3.3333333333333335
sg13
I0
sg14
F1.6
sg15
F2.7714285714285714
sg16
I0
sg17
F2.8
sg18
I0
sg19
F5.0
sg20
F2.8333333333333335
sg21
F2.0
ssI150
(dp170
g2
F4.0
sg3
F3.5
sg4
F4.666666666666667
sg5
F3.7142857142857144
sg6
I0
sg7
I0
sg8
F3.75
sg9
F3.4
sg10
F3.0
sg11
F3.0
sg12
I0
sg13
I0
sg14
F3.0
sg15
F3.6
sg16
I0
sg17
F3.4444444444444446
sg18
I0
sg19
I0
sg20
F3.6666666666666665
sg21
I0
ssI151
(dp171
g2
F3.0
sg3
F3.4285714285714284
sg4
F3.75
sg5
F3.466666666666667
sg6
F3.0
sg7
I0
sg8
F4.5
sg9
F4.0
sg10
F3.9166666666666665
sg11
F3.5
sg12
F4.2
sg13
I0
sg14
F3.5714285714285716
sg15
F3.5
sg16
I0
sg17
F3.710526315789474
sg18
I0
sg19
I0
sg20
F3.4
sg21
I0
ssI152
(dp172
g2
F4.0625
sg3
F4.048780487804878
sg4
F3.625
sg5
F3.5
sg6
F4.5
sg7
F4.0
sg8
F4.136363636363637
sg9
F4.0
sg10
F3.1666666666666665
sg11
F3.5
sg12
F4.5
sg13
F3.5
sg14
F4.5
sg15
F3.588235294117647
sg16
I0
sg17
F3.75
sg18
F4.375
sg19
F4.333333333333333
sg20
F4.04
sg21
I0
ssI153
(dp173
g2
F3.375
sg3
F2.7387387387387387
sg4
F1.4782608695652173
sg5
F1.351063829787234
sg6
F1.125
sg7
F2.5
sg8
F1.7
sg9
F2.673076923076923
sg10
F1.94
sg11
F2.5555555555555554
sg12
F1.71875
sg13
F1.0909090909090908
sg14
F1.6521739130434783
sg15
F0.9285714285714286
sg16
I0
sg17
F2.1333333333333333
sg18
F1.0
sg19
F1.6111111111111112
sg20
F1.8333333333333333
sg21
F0.75
ssI154
(dp174
g2
F5.0
sg3
F4.0
sg4
F4.733333333333333
sg5
F4.571428571428571
sg6
I0
sg7
I0
sg8
F3.2
sg9
F5.0
sg10
F4.8125
sg11
I0
sg12
F4.625
sg13
F4.428571428571429
sg14
F4.9375
sg15
F4.181818181818182
sg16
I0
sg17
F4.4375
sg18
I0
sg19
F4.5
sg20
F2.5
sg21
I0
ssI155
(dp175
g2
I0
sg3
F3.2857142857142856
sg4
F4.0
sg5
F3.6666666666666665
sg6
F4.0
sg7
I0
sg8
F3.5714285714285716
sg9
F4.0
sg10
F3.2
sg11
F3.0
sg12
F3.5714285714285716
sg13
I0
sg14
F3.3
sg15
F3.75
sg16
I0
sg17
F3.5384615384615383
sg18
I0
sg19
F4.0
sg20
F3.5714285714285716
sg21
F4.0
ssI156
(dp176
g2
F3.986111111111111
sg3
F3.8171296296296298
sg4
F3.3
sg5
F3.5816326530612246
sg6
F3.5
sg7
F4.666666666666667
sg8
F3.8785714285714286
sg9
F3.7475247524752477
sg10
F3.640625
sg11
F3.75
sg12
F3.3181818181818183
sg13
F4.0
sg14
F3.272727272727273
sg15
F3.2916666666666665
sg16
I0
sg17
F3.521951219512195
sg18
F3.8333333333333335
sg19
F3.875
sg20
F3.782258064516129
sg21
F3.75
ssI157
(dp177
g2
F3.5
sg3
F3.6666666666666665
sg4
F3.0
sg5
F3.5
sg6
I0
sg7
I0
sg8
F4.333333333333333
sg9
F2.5
sg10
F3.5
sg11
I0
sg12
F4.0
sg13
I0
sg14
F3.0
sg15
F3.4
sg16
I0
sg17
F3.230769230769231
sg18
I0
sg19
F5.0
sg20
F4.333333333333333
sg21
I0
ssI158
(dp178
g2
F4.0
sg3
F3.357142857142857
sg4
F4.0
sg5
F3.375
sg6
F3.7
sg7
I0
sg8
F3.6
sg9
F3.0
sg10
F3.0
sg11
I0
sg12
I0
sg13
I0
sg14
F2.5
sg15
F3.7142857142857144
sg16
I0
sg17
F3.2
sg18
F4.0
sg19
I0
sg20
F3.6
sg21
I0
ssI159
(dp179
g2
F4.0
sg3
F3.1842105263157894
sg4
F2.4166666666666665
sg5
F3.710526315789474
sg6
I0
sg7
I0
sg8
F1.8333333333333333
sg9
F3.1923076923076925
sg10
F3.9615384615384617
sg11
F3.4
sg12
F3.8076923076923075
sg13
F4.333333333333333
sg14
F3.9
sg15
F3.4375
sg16
I0
sg17
F3.4215686274509802
sg18
I0
sg19
F3.6666666666666665
sg20
F2.875
sg21
I0
ssI160
(dp180
g2
F3.0
sg3
F3.1948051948051948
sg4
F2.4770992366412212
sg5
F2.2948717948717947
sg6
F2.341666666666667
sg7
F5.0
sg8
F3.198529411764706
sg9
F2.8425925925925926
sg10
F2.819672131147541
sg11
F3.6904761904761907
sg12
F3.6153846153846154
sg13
F3.75
sg14
F2.894230769230769
sg15
F2.284090909090909
sg16
I0
sg17
F2.75
sg18
I0
sg19
F3.611111111111111
sg20
F2.4615384615384617
sg21
F2.3333333333333335
ssI161
(dp181
g2
F4.0
sg3
F3.7222222222222223
sg4
F4.083333333333333
sg5
F4.214285714285714
sg6
F4.0
sg7
I0
sg8
F4.666666666666667
sg9
F3.25
sg10
F3.5555555555555554
sg11
F4.071428571428571
sg12
F4.269230769230769
sg13
I0
sg14
F4.266666666666667
sg15
F3.875
sg16
I0
sg17
F3.86
sg18
F4.5
sg19
I0
sg20
F3.8333333333333335
sg21
I0
ssI162
(dp182
g2
F4.0
sg3
F4.257142857142857
sg4
F4.0
sg5
F4.0
sg6
I0
sg7
I0
sg8
F4.444444444444445
sg9
F4.142857142857143
sg10
F3.0
sg11
F4.0
sg12
F4.0
sg13
F4.0
sg14
F4.0
sg15
F4.0
sg16
I0
sg17
F4.0
sg18
I0
sg19
F4.666666666666667
sg20
F4.0
sg21
F4.0
ssI163
(dp183
g2
F3.0
sg3
F3.0
sg4
F2.5
sg5
F2.0
sg6
F3.0
sg7
F3.0
sg8
F2.5
sg9
F3.142857142857143
sg10
F2.0
sg11
I0
sg12
I0
sg13
I0
sg14
F4.0
sg15
F2.8
sg16
I0
sg17
F3.0833333333333335
sg18
I0
sg19
I0
sg20
F3.0
sg21
I0
ssI164
(dp184
g2
I0
sg3
F4.333333333333333
sg4
F4.25
sg5
F4.277777777777778
sg6
F4.0
sg7
I0
sg8
F3.6666666666666665
sg9
F3.75
sg10
F3.5
sg11
I0
sg12
I0
sg13
I0
sg14
F4.0
sg15
F4.34375
sg16
I0
sg17
F3.4
sg18
I0
sg19
F5.0
sg20
F4.230769230769231
sg21
F5.0
ssI165
(dp185
g2
F4.0
sg3
F3.2941176470588234
sg4
F3.6
sg5
F3.8823529411764706
sg6
F3.5
sg7
I0
sg8
F3.5294117647058822
sg9
F3.6666666666666665
sg10
F3.75
sg11
F4.0
sg12
F4.0
sg13
I0
sg14
F3.3333333333333335
sg15
F3.7241379310344827
sg16
I0
sg17
F3.4545454545454546
sg18
I0
sg19
F3.5
sg20
F3.6842105263157894
sg21
F3.3333333333333335
ssI166
(dp186
g2
F3.975
sg3
F4.166666666666667
sg4
F4.029411764705882
sg5
F4.084905660377358
sg6
F3.75
sg7
F4.666666666666667
sg8
F4.201923076923077
sg9
F4.214285714285714
sg10
F4.0344827586206895
sg11
F4.5
sg12
F4.5
sg13
F4.428571428571429
sg14
F4.2
sg15
F3.994047619047619
sg16
I0
sg17
F4.0673076923076925
sg18
F4.0
sg19
F4.136363636363637
sg20
F4.014705882352941
sg21
F4.333333333333333
ssI167
(dp187
g2
F3.5
sg3
F3.1842105263157894
sg4
F3.442857142857143
sg5
F3.8220338983050848
sg6
F2.9545454545454546
sg7
F4.5
sg8
F3.4310344827586206
sg9
F2.8653846153846154
sg10
F3.9047619047619047
sg11
F3.34375
sg12
F3.92
sg13
F4.0625
sg14
F3.703125
sg15
F3.451923076923077
sg16
I0
sg17
F3.378787878787879
sg18
I0
sg19
F2.75
sg20
F3.096774193548387
sg21
F2.75
ssI168
(dp188
g2
F4.735294117647059
sg3
F4.571428571428571
sg4
F2.25
sg5
F4.2
sg6
F3.0
sg7
F4.75
sg8
F4.64
sg9
F4.366666666666666
sg10
F4.4
sg11
F4.5
sg12
F4.5
sg13
I0
sg14
F4.4
sg15
F4.53125
sg16
I0
sg17
F4.26
sg18
F4.75
sg19
F4.576923076923077
sg20
F4.48
sg21
F4.8
ssI169
(dp189
g2
F4.166666666666667
sg3
F4.393203883495145
sg4
F3.84
sg5
F4.092592592592593
sg6
F3.75
sg7
I0
sg8
F4.108695652173913
sg9
F4.265432098765432
sg10
F4.357142857142857
sg11
F4.42
sg12
F4.333333333333333
sg13
F4.416666666666667
sg14
F4.315217391304348
sg15
F3.857142857142857
sg16
I0
sg17
F4.224137931034483
sg18
F4.333333333333333
sg19
F4.35
sg20
F3.816666666666667
sg21
F4.333333333333333
ssI170
(dp190
g2
F3.0
sg3
F3.625
sg4
F3.3333333333333335
sg5
F3.1666666666666665
sg6
F4.0
sg7
I0
sg8
F3.2857142857142856
sg9
F3.75
sg10
F2.6
sg11
F3.2
sg12
F3.2
sg13
F3.0
sg14
F3.0
sg15
F3.2777777777777777
sg16
I0
sg17
F3.1176470588235294
sg18
I0
sg19
F4.0
sg20
F3.1578947368421053
sg21
F3.75
ssI171
(dp191
g2
F4.75
sg3
F4.676470588235294
sg4
F4.7
sg5
F4.636363636363637
sg6
F4.666666666666667
sg7
I0
sg8
F4.777777777777778
sg9
F4.5
sg10
F4.4
sg11
F4.5
sg12
F4.75
sg13
I0
sg14
F4.636363636363637
sg15
F4.571428571428571
sg16
I0
sg17
F4.612903225806452
sg18
I0
sg19
F4.5
sg20
F4.684210526315789
sg21
F4.8
ssI172
(dp192
g2
F4.5
sg3
F3.8333333333333335
sg4
F3.875
sg5
F3.75
sg6
F3.75
sg7
I0
sg8
F3.8333333333333335
sg9
F5.0
sg10
F3.9
sg11
F3.5
sg12
F3.5
sg13
I0
sg14
F3.75
sg15
F3.7
sg16
I0
sg17
F4.0
sg18
I0
sg19
F3.6666666666666665
sg20
F3.7
sg21
F3.5
ssI173
(dp193
g2
I0
sg3
F3.727272727272727
sg4
F3.5
sg5
F3.4285714285714284
sg6
F3.0
sg7
I0
sg8
F2.3333333333333335
sg9
F3.7142857142857144
sg10
F3.0
sg11
F3.0
sg12
F3.0
sg13
F3.5
sg14
F3.0
sg15
F3.125
sg16
I0
sg17
F3.5
sg18
I0
sg19
F4.333333333333333
sg20
F2.8333333333333335
sg21
I0
ssI174
(dp194
g2
F3.6
sg3
F3.6923076923076925
sg4
F3.4545454545454546
sg5
F3.6842105263157894
sg6
F3.5
sg7
I0
sg8
F3.4444444444444446
sg9
F3.9285714285714284
sg10
F3.4
sg11
F3.5
sg12
F3.5
sg13
F4.0
sg14
F3.4
sg15
F3.75
sg16
I0
sg17
F3.607142857142857
sg18
I0
sg19
F3.0
sg20
F3.75
sg21
F4.0
ssI175
(dp195
g2
I0
sg3
F4.033333333333333
sg4
F0.5
sg5
I0
sg6
F0.5
sg7
I0
sg8
I0
sg9
F4.277777777777778
sg10
I0
sg11
F4.166666666666667
sg12
I0
sg13
I0
sg14
F4.25
sg15
I0
sg16
I0
sg17
F3.7222222222222223
sg18
I0
sg19
I0
sg20
F0.5
sg21
I0
ssI176
(dp196
g2
F5.0
sg3
F4.25
sg4
F4.2
sg5
F4.071428571428571
sg6
F5.0
sg7
I0
sg8
F3.857142857142857
sg9
F4.25
sg10
F3.0
sg11
F3.0
sg12
F3.0
sg13
F4.0
sg14
F3.0
sg15
F4.111111111111111
sg16
I0
sg17
F3.4166666666666665
sg18
I0
sg19
F4.5
sg20
F4.1875
sg21
F4.25
ssI177
(dp197
g2
F3.5714285714285716
sg3
F3.5872395833333335
sg4
F3.076923076923077
sg5
F3.212328767123288
sg6
F3.0327868852459017
sg7
F3.111111111111111
sg8
F3.4798387096774195
sg9
F3.517167381974249
sg10
F3.38
sg11
F3.62
sg12
F3.5396039603960396
sg13
F3.6339285714285716
sg14
F3.317241379310345
sg15
F3.132701421800948
sg16
I0
sg17
F3.2933673469387754
sg18
F3.8333333333333335
sg19
F3.585714285714286
sg20
F3.272020725388601
sg21
F3.3461538461538463
ssI178
(dp198
g2
F4.416666666666667
sg3
F4.368421052631579
sg4
F4.1
sg5
F3.75
sg6
F4.333333333333333
sg7
I0
sg8
F4.25
sg9
F4.078947368421052
sg10
F3.625
sg11
F2.0
sg12
F2.875
sg13
F3.25
sg14
F3.0
sg15
F3.891304347826087
sg16
I0
sg17
F3.9791666666666665
sg18
F3.75
sg19
F4.5625
sg20
F4.1923076923076925
sg21
F4.5
ssI179
(dp199
g2
F3.5
sg3
F4.181818181818182
sg4
F3.888888888888889
sg5
F3.7222222222222223
sg6
F3.6666666666666665
sg7
I0
sg8
F3.7142857142857144
sg9
F4.111111111111111
sg10
F3.75
sg11
F4.0
sg12
F4.0
sg13
F4.0
sg14
F4.0
sg15
F3.8076923076923075
sg16
I0
sg17
F3.566666666666667
sg18
I0
sg19
F5.0
sg20
F3.9655172413793105
sg21
F4.0
ssI180
(dp200
g2
I0
sg3
F3.642857142857143
sg4
F3.8125
sg5
F3.75
sg6
F3.25
sg7
F3.5
sg8
F4.5
sg9
F3.5
sg10
F3.5714285714285716
sg11
I0
sg12
F4.0
sg13
I0
sg14
F4.0
sg15
F3.8
sg16
I0
sg17
F3.388888888888889
sg18
I0
sg19
F3.5
sg20
F3.3333333333333335
sg21
I0
ssI181
(dp201
g2
F3.2
sg3
F3.18
sg4
F2.5
sg5
F3.0588235294117645
sg6
F2.75
sg7
I0
sg8
F2.8
sg9
F3.037037037037037
sg10
F3.0
sg11
F3.3333333333333335
sg12
F3.5
sg13
F4.0
sg14
F3.2
sg15
F2.75
sg16
I0
sg17
F2.92
sg18
I0
sg19
F3.1666666666666665
sg20
F3.0434782608695654
sg21
F2.0
ssI182
(dp202
g2
F3.765432098765432
sg3
F3.867075664621677
sg4
F3.0727848101265822
sg5
F3.119186046511628
sg6
F3.189655172413793
sg7
F4.2272727272727275
sg8
F3.675392670157068
sg9
F3.6512345679012346
sg10
F3.3313953488372094
sg11
F3.6
sg12
F3.5806451612903225
sg13
F2.5714285714285716
sg14
F3.103448275862069
sg15
F3.0924528301886793
sg16
I0
sg17
F3.4483282674772036
sg18
F3.2666666666666666
sg19
F3.959016393442623
sg20
F3.2864583333333335
sg21
F3.4545454545454546
ssI183
(dp203
g2
F4.0
sg3
F4.055555555555555
sg4
F3.466666666666667
sg5
F3.75
sg6
F3.5
sg7
I0
sg8
F3.6666666666666665
sg9
F4.333333333333333
sg10
F3.0
sg11
F4.0
sg12
I0
sg13
I0
sg14
F3.0
sg15
F3.911111111111111
sg16
I0
sg17
F3.5
sg18
I0
sg19
F4.25
sg20
F3.8095238095238093
sg21
F3.75
ssI184
(dp204
g2
F4.115384615384615
sg3
F3.9761904761904763
sg4
F3.817073170731707
sg5
F3.513157894736842
sg6
F3.1
sg7
I0
sg8
F4.041666666666667
sg9
F4.166666666666667
sg10
F3.35
sg11
I0
sg12
F3.4310344827586206
sg13
F3.9166666666666665
sg14
F3.2142857142857144
sg15
F3.5403225806451615
sg16
F4.5
sg17
F3.574074074074074
sg18
F4.4375
sg19
F4.0
sg20
F3.7586206896551726
sg21
I0
ssI185
(dp205
g2
F4.333333333333333
sg3
F3.590909090909091
sg4
F2.5
sg5
F3.5
sg6
F1.5
sg7
I0
sg8
F3.2
sg9
F3.5714285714285716
sg10
F3.25
sg11
F3.75
sg12
F3.4615384615384617
sg13
F4.0
sg14
F3.466666666666667
sg15
F3.6666666666666665
sg16
I0
sg17
F3.35
sg18
I0
sg19
F3.0
sg20
F4.0
sg21
I0
ssI186
(dp206
g2
F4.333333333333333
sg3
F4.074626865671642
sg4
F4.090909090909091
sg5
F4.11578947368421
sg6
F4.1
sg7
F4.0
sg8
F4.0588235294117645
sg9
F4.097560975609756
sg10
F4.136363636363637
sg11
F4.294117647058823
sg12
F4.125
sg13
F4.333333333333333
sg14
F4.054054054054054
sg15
F4.0476190476190474
sg16
I0
sg17
F4.097222222222222
sg18
F4.0
sg19
F4.0
sg20
F4.0508474576271185
sg21
F4.25
ssI187
(dp207
g2
F4.12962962962963
sg3
F3.914285714285714
sg4
F3.2083333333333335
sg5
F3.267857142857143
sg6
F4.203125
sg7
F4.4375
sg8
F3.857142857142857
sg9
F3.396551724137931
sg10
F4.212121212121212
sg11
F4.25
sg12
F4.173913043478261
sg13
F2.1666666666666665
sg14
F3.611111111111111
sg15
F3.3733333333333335
sg16
I0
sg17
F3.6323529411764706
sg18
F4.029411764705882
sg19
F3.875
sg20
F3.6091954022988504
sg21
F3.5
ssI188
(dp208
g2
F4.222222222222222
sg3
F4.3478260869565215
sg4
F3.0
sg5
F5.0
sg6
I0
sg7
F5.0
sg8
F4.0
sg9
F4.294117647058823
sg10
F4.75
sg11
F4.714285714285714
sg12
F4.5
sg13
I0
sg14
F4.75
sg15
F4.0
sg16
I0
sg17
F4.304347826086956
sg18
I0
sg19
F5.0
sg20
F4.222222222222222
sg21
F4.0
ssI189
(dp209
g2
F4.25
sg3
F4.2272727272727275
sg4
F4.25
sg5
F4.0
sg6
F4.0
sg7
I0
sg8
F4.111111111111111
sg9
F4.0
sg10
F4.0
sg11
I0
sg12
F4.25
sg13
F4.1
sg14
F4.25
sg15
F4.111111111111111
sg16
I0
sg17
F4.0
sg18
I0
sg19
F4.25
sg20
F4.166666666666667
sg21
I0
ssI190
(dp210
g2
F4.0
sg3
F4.027777777777778
sg4
F3.5555555555555554
sg5
F4.166666666666667
sg6
I0
sg7
F4.0
sg8
F3.8823529411764706
sg9
F3.888888888888889
sg10
F4.416666666666667
sg11
F3.5
sg12
F3.8
sg13
F4.5
sg14
F3.9166666666666665
sg15
F3.7333333333333334
sg16
I0
sg17
F3.7916666666666665
sg18
F3.5
sg19
F4.25
sg20
F3.71875
sg21
I0
ssI191
(dp211
g2
F3.0
sg3
F4.056603773584905
sg4
F2.3333333333333335
sg5
F2.6923076923076925
sg6
I0
sg7
F5.0
sg8
F3.9285714285714284
sg9
F3.590909090909091
sg10
F4.5
sg11
I0
sg12
F4.666666666666667
sg13
F2.0
sg14
F3.8
sg15
F2.466666666666667
sg16
I0
sg17
F3.7096774193548385
sg18
F5.0
sg19
F3.25
sg20
F3.6666666666666665
sg21
F1.0
ssI192
(dp212
g2
F3.5
sg3
F4.0
sg4
F4.25
sg5
F4.5
sg6
F3.0
sg7
I0
sg8
F3.8
sg9
F4.666666666666667
sg10
F3.0
sg11
I0
sg12
I0
sg13
F5.0
sg14
I0
sg15
F4.2727272727272725
sg16
I0
sg17
F4.0
sg18
I0
sg19
F4.0
sg20
F4.076923076923077
sg21
F4.0
ssI193
(dp213
g2
F4.5
sg3
F4.0227272727272725
sg4
F4.071428571428571
sg5
F3.75
sg6
F4.25
sg7
I0
sg8
F3.9375
sg9
F3.5714285714285716
sg10
F3.5
sg11
I0
sg12
F4.0
sg13
F4.0
sg14
F2.0
sg15
F3.611111111111111
sg16
I0
sg17
F3.0555555555555554
sg18
I0
sg19
F3.5
sg20
F4.0
sg21
I0
ssI194
(dp214
g2
F3.5
sg3
F3.625
sg4
F3.5
sg5
F3.8333333333333335
sg6
F3.5
sg7
F3.5
sg8
F3.5
sg9
F3.1875
sg10
I0
sg11
F2.8333333333333335
sg12
F2.0
sg13
I0
sg14
F2.0
sg15
F3.5714285714285716
sg16
I0
sg17
F3.409090909090909
sg18
I0
sg19
F4.333333333333333
sg20
F3.375
sg21
F3.0
ssI195
(dp215
g2
F3.55
sg3
F3.630630630630631
sg4
F3.588235294117647
sg5
F3.3
sg6
F3.25
sg7
F3.0
sg8
F3.5952380952380953
sg9
F3.8
sg10
F2.7777777777777777
sg11
F2.0
sg12
F2.3333333333333335
sg13
F4.0
sg14
F2.6666666666666665
sg15
F3.2653061224489797
sg16
I0
sg17
F3.6346153846153846
sg18
I0
sg19
F3.4285714285714284
sg20
F3.377049180327869
sg21
F3.5
ssI196
(dp216
g2
F3.25
sg3
F3.9375
sg4
F3.857142857142857
sg5
F4.0
sg6
F3.75
sg7
I0
sg8
F4.3
sg9
I0
sg10
F2.5
sg11
F5.0
sg12
F4.5
sg13
F4.625
sg14
F4.5
sg15
F4.107142857142857
sg16
I0
sg17
F3.25
sg18
I0
sg19
F3.1666666666666665
sg20
F3.909090909090909
sg21
I0
ssI197
(dp217
g2
F3.5
sg3
F3.823529411764706
sg4
F4.375
sg5
F3.5
sg6
F2.5
sg7
I0
sg8
F3.6666666666666665
sg9
F4.166666666666667
sg10
I0
sg11
I0
sg12
I0
sg13
I0
sg14
I0
sg15
F3.875
sg16
I0
sg17
F3.8181818181818183
sg18
I0
sg19
F3.0
sg20
F3.7857142857142856
sg21
F4.0
ssI198
(dp218
g2
F3.303030303030303
sg3
F3.71875
sg4
F3.380952380952381
sg5
F3.611111111111111
sg6
F2.764705882352941
sg7
F3.5
sg8
F3.7
sg9
F3.6923076923076925
sg10
F3.4545454545454546
sg11
F4.0
sg12
F4.0
sg13
F3.5
sg14
F3.8
sg15
F3.327272727272727
sg16
I0
sg17
F3.2941176470588234
sg18
I0
sg19
F4.166666666666667
sg20
F3.476923076923077
sg21
F3.75
ssI199
(dp219
g2
F3.359375
sg3
F3.5
sg4
F3.0454545454545454
sg5
F3.7023809523809526
sg6
F3.230769230769231
sg7
F4.25
sg8
F3.5764705882352943
sg9
F3.1569767441860463
sg10
F3.230769230769231
sg11
F2.25
sg12
F1.0
sg13
F2.75
sg14
F2.3333333333333335
sg15
F3.366279069767442
sg16
I0
sg17
F3.390625
sg18
F3.1
sg19
F4.059523809523809
sg20
F3.223404255319149
sg21
F3.875
ssI200
(dp220
g2
F4.346153846153846
sg3
F3.799145299145299
sg4
F3.648936170212766
sg5
F3.755434782608696
sg6
F3.875
sg7
F4.666666666666667
sg8
F4.053191489361702
sg9
F3.8333333333333335
sg10
F3.6463414634146343
sg11
F4.125
sg12
F3.3333333333333335
sg13
F4.0
sg14
F3.28
sg15
F3.811926605504587
sg16
I0
sg17
F3.8275862068965516
sg18
F4.0
sg19
F3.772727272727273
sg20
F3.8529411764705883
sg21
F3.5
ssI201
(dp221
g2
F4.2
sg3
F4.352941176470588
sg4
F4.027777777777778
sg5
F4.25
sg6
F3.5714285714285716
sg7
F1.0
sg8
F3.6666666666666665
sg9
F4.176470588235294
sg10
F4.066666666666666
sg11
F4.0
sg12
F4.6
sg13
F4.0
sg14
F4.555555555555555
sg15
F4.081081081081081
sg16
I0
sg17
F4.206896551724138
sg18
I0
sg19
F5.0
sg20
F3.88
sg21
F3.5
ssI202
(dp222
g2
F3.7777777777777777
sg3
F3.859030837004405
sg4
F3.7384615384615385
sg5
F3.872340425531915
sg6
F4.0
sg7
F3.8333333333333335
sg8
F3.913793103448276
sg9
F3.8
sg10
F4.0
sg11
F3.888888888888889
sg12
F3.9166666666666665
sg13
F4.0
sg14
F4.0625
sg15
F3.7142857142857144
sg16
I0
sg17
F3.8333333333333335
sg18
F4.666666666666667
sg19
F4.096774193548387
sg20
F3.7641509433962264
sg21
F3.9375
ssI203
(dp223
g2
F4.166666666666667
sg3
F4.3125
sg4
F3.7222222222222223
sg5
F4.029411764705882
sg6
F4.0
sg7
I0
sg8
F4.15
sg9
F3.5
sg10
F4.090909090909091
sg11
I0
sg12
F3.8333333333333335
sg13
F4.0
sg14
F3.75
sg15
F3.95
sg16
I0
sg17
F3.1785714285714284
sg18
I0
sg19
F4.75
sg20
F3.9375
sg21
F3.75
ssI204
(dp224
g2
F4.318181818181818
sg3
F3.9651162790697674
sg4
F4.090909090909091
sg5
F3.5357142857142856
sg6
F3.6875
sg7
F3.8333333333333335
sg8
F4.195652173913044
sg9
F3.9285714285714284
sg10
F3.75
sg11
I0
sg12
F3.6785714285714284
sg13
F3.75
sg14
F3.269230769230769
sg15
F3.7
sg16
I0
sg17
F3.9423076923076925
sg18
I0
sg19
F4.428571428571429
sg20
F4.333333333333333
sg21
F3.5
ssI205
(dp225
g2
F4.166666666666667
sg3
F3.8181818181818183
sg4
F4.166666666666667
sg5
F3.9285714285714284
sg6
I0
sg7
I0
sg8
F4.5
sg9
F3.25
sg10
F3.8
sg11
F2.75
sg12
F4.0
sg13
F3.75
sg14
F3.8333333333333335
sg15
F4.0
sg16
I0
sg17
F3.875
sg18
F5.0
sg19
F4.0
sg20
F3.9
sg21
F4.5
ssI206
(dp226
g2
F3.6666666666666665
sg3
F4.583333333333333
sg4
F3.3333333333333335
sg5
F3.625
sg6
I0
sg7
I0
sg8
F5.0
sg9
F4.375
sg10
F4.333333333333333
sg11
F4.0
sg12
F4.666666666666667
sg13
I0
sg14
F4.25
sg15
F3.2857142857142856
sg16
I0
sg17
F4.25
sg18
I0
sg19
I0
sg20
F3.4444444444444446
sg21
F5.0
ssI207
(dp227
g2
I0
sg3
F3.1666666666666665
sg4
F2.6666666666666665
sg5
F2.857142857142857
sg6
F3.0
sg7
I0
sg8
F3.5
sg9
F3.0
sg10
F2.3333333333333335
sg11
I0
sg12
I0
sg13
I0
sg14
F0.5
sg15
F2.75
sg16
I0
sg17
F2.0714285714285716
sg18
I0
sg19
I0
sg20
F3.4285714285714284
sg21
F3.5
ssI208
(dp228
g2
F3.5
sg3
F3.5
sg4
F3.8333333333333335
sg5
F3.125
sg6
F3.0
sg7
I0
sg8
F2.8333333333333335
sg9
F3.3333333333333335
sg10
F3.0
sg11
I0
sg12
I0
sg13
I0
sg14
I0
sg15
F3.388888888888889
sg16
I0
sg17
F3.0
sg18
I0
sg19
F4.0
sg20
F3.0
sg21
I0
ssI209
(dp229
g2
F4.583333333333333
sg3
F4.295454545454546
sg4
F4.0
sg5
F4.291666666666667
sg6
F3.0
sg7
I0
sg8
F4.666666666666667
sg9
F4.125
sg10
F4.6
sg11
I0
sg12
F4.0
sg13
F4.4
sg14
F4.0
sg15
F4.205882352941177
sg16
I0
sg17
F4.083333333333333
sg18
I0
sg19
F4.5
sg20
F4.291666666666667
sg21
I0
ssI210
(dp230
g2
F4.333333333333333
sg3
F3.890625
sg4
F4.201219512195122
sg5
F4.230769230769231
sg6
F3.3333333333333335
sg7
I0
sg8
F3.25
sg9
F4.4375
sg10
F3.9871794871794872
sg11
I0
sg12
F4.108695652173913
sg13
F4.2592592592592595
sg14
F4.017857142857143
sg15
F4.139705882352941
sg16
F4.0
sg17
F3.896551724137931
sg18
I0
sg19
F4.75
sg20
F3.857142857142857
sg21
I0
ssI211
(dp231
g2
F3.6785714285714284
sg3
F4.071428571428571
sg4
F3.730769230769231
sg5
F3.8529411764705883
sg6
F3.5
sg7
F4.0
sg8
F4.224137931034483
sg9
F3.875
sg10
F3.875
sg11
F4.125
sg12
F3.9
sg13
F3.9166666666666665
sg14
F3.8333333333333335
sg15
F3.894230769230769
sg16
I0
sg17
F3.975
sg18
I0
sg19
F4.0
sg20
F3.792682926829268
sg21
I0
ssI212
(dp232
g2
F3.526315789473684
sg3
F3.6129032258064515
sg4
F3.4411764705882355
sg5
F3.574712643678161
sg6
F3.4285714285714284
sg7
F4.0
sg8
F3.6382978723404253
sg9
F3.625
sg10
F3.727272727272727
sg11
F3.75
sg12
F3.736111111111111
sg13
F3.4464285714285716
sg14
F3.683333333333333
sg15
F3.5046296296296298
sg16
F3.5
sg17
F3.6149425287356323
sg18
I0
sg19
F3.4
sg20
F3.4363636363636365
sg21
F3.5
ssI213
(dp233
g2
F3.5
sg3
F3.9642857142857144
sg4
F3.875
sg5
F3.783333333333333
sg6
F3.4642857142857144
sg7
I0
sg8
F3.875
sg9
F4.090909090909091
sg10
F3.7222222222222223
sg11
F5.0
sg12
F4.0
sg13
F3.6875
sg14
F3.8
sg15
F3.9285714285714284
sg16
I0
sg17
F3.8333333333333335
sg18
I0
sg19
F3.875
sg20
F3.727272727272727
sg21
I0
ssI214
(dp234
g2
F3.0
sg3
F3.0
sg4
F2.75
sg5
F2.8333333333333335
sg6
I0
sg7
I0
sg8
F3.0
sg9
F2.75
sg10
F2.8
sg11
F3.0
sg12
F3.0
sg13
I0
sg14
F3.0
sg15
F2.8
sg16
I0
sg17
F2.75
sg18
I0
sg19
I0
sg20
F2.8333333333333335
sg21
I0
ssI215
(dp235
g2
F4.0
sg3
F4.084905660377358
sg4
F3.75
sg5
F4.0625
sg6
F2.5
sg7
F4.0
sg8
F3.8
sg9
F3.9444444444444446
sg10
F3.9444444444444446
sg11
I0
sg12
I0
sg13
F4.0
sg14
F4.5
sg15
F3.9523809523809526
sg16
I0
sg17
F3.8333333333333335
sg18
F5.0
sg19
F4.1875
sg20
F3.5833333333333335
sg21
F2.5
ssI216
(dp236
g2
F4.0
sg3
F3.6774193548387095
sg4
F3.0
sg5
F3.45
sg6
F3.0
sg7
F4.333333333333333
sg8
F3.8181818181818183
sg9
F3.8974358974358974
sg10
F3.588235294117647
sg11
F3.761904761904762
sg12
F3.5
sg13
F4.0
sg14
F3.5555555555555554
sg15
F3.35
sg16
I0
sg17
F3.63302752293578
sg18
F5.0
sg19
F3.4
sg20
F3.4615384615384617
sg21
F4.0
ssI217
(dp237
g2
F3.0625
sg3
F2.838323353293413
sg4
F2.911764705882353
sg5
F2.9482758620689653
sg6
F2.76
sg7
F3.0
sg8
F2.8850574712643677
sg9
F2.5945945945945947
sg10
F2.676056338028169
sg11
F2.8
sg12
F3.1153846153846154
sg13
I0
sg14
F2.7866666666666666
sg15
F2.8410041841004183
sg16
I0
sg17
F2.6390728476821192
sg18
I0
sg19
F2.6206896551724137
sg20
F2.91875
sg21
F2.4285714285714284
ssI218
(dp238
g2
F3.125
sg3
F3.6666666666666665
sg4
F2.75
sg5
F3.111111111111111
sg6
F3.75
sg7
F4.5
sg8
F3.8333333333333335
sg9
F3.6666666666666665
sg10
F3.0
sg11
F3.25
sg12
I0
sg13
F2.6666666666666665
sg14
I0
sg15
F3.125
sg16
I0
sg17
F3.4545454545454546
sg18
I0
sg19
F4.0
sg20
F2.9166666666666665
sg21
I0
ssI219
(dp239
g2
F3.7884615384615383
sg3
F3.394230769230769
sg4
F3.016949152542373
sg5
F3.161290322580645
sg6
F3.0161290322580645
sg7
F4.1875
sg8
F3.4390243902439024
sg9
F3.016949152542373
sg10
F2.976923076923077
sg11
F3.392857142857143
sg12
F3.5375
sg13
F3.375
sg14
F2.8333333333333335
sg15
F3.098790322580645
sg16
I0
sg17
F3.0920398009950247
sg18
F3.75
sg19
F3.4166666666666665
sg20
F3.2738693467336684
sg21
F3.4
ssI220
(dp240
g2
F3.95
sg3
F4.110169491525424
sg4
F3.9035087719298245
sg5
F3.9195402298850577
sg6
F3.6
sg7
I0
sg8
F4.3088235294117645
sg9
F4.2272727272727275
sg10
F4.02
sg11
F4.3125
sg12
F4.153846153846154
sg13
F3.925
sg14
F4.0
sg15
F3.792929292929293
sg16
I0
sg17
F4.033333333333333
sg18
F4.0
sg19
F3.857142857142857
sg20
F3.7615384615384615
sg21
F4.6
ssI221
(dp241
g2
F4.4
sg3
F4.229381443298969
sg4
F3.84
sg5
F3.8333333333333335
sg6
F4.25
sg7
F4.444444444444445
sg8
F4.24375
sg9
F4.194444444444445
sg10
F4.2368421052631575
sg11
F3.8333333333333335
sg12
F4.125
sg13
F2.5
sg14
F3.7142857142857144
sg15
F3.7403846153846154
sg16
I0
sg17
F3.94954128440367
sg18
F4.423076923076923
sg19
F4.2407407407407405
sg20
F4.130769230769231
sg21
F4.088235294117647
ssI222
(dp242
g2
F3.1666666666666665
sg3
F3.234782608695652
sg4
F3.3035714285714284
sg5
F3.1857142857142855
sg6
F2.5
sg7
F3.0
sg8
F3.253731343283582
sg9
F2.9302325581395348
sg10
F3.15
sg11
F3.3
sg12
F3.0
sg13
F3.1818181818181817
sg14
F2.45
sg15
F3.1948051948051948
sg16
I0
sg17
F3.084070796460177
sg18
F2.75
sg19
F3.4285714285714284
sg20
F3.1272727272727274
sg21
F3.625
ssI223
(dp243
g2
F3.5625
sg3
F3.2333333333333334
sg4
F3.423076923076923
sg5
F3.5434782608695654
sg6
F2.0
sg7
F4.0
sg8
F3.4583333333333335
sg9
F3.6470588235294117
sg10
F3.433333333333333
sg11
F3.6666666666666665
sg12
F3.8125
sg13
F3.5
sg14
F3.55
sg15
F3.4615384615384617
sg16
I0
sg17
F3.32
sg18
F4.0
sg19
F3.25
sg20
F3.076923076923077
sg21
F3.0
ssI224
(dp244
g2
F5.0
sg3
F4.333333333333333
sg4
F3.25
sg5
F3.5714285714285716
sg6
F2.5
sg7
I0
sg8
F4.333333333333333
sg9
F4.310344827586207
sg10
F4.75
sg11
I0
sg12
F4.0
sg13
I0
sg14
F4.333333333333333
sg15
F3.2857142857142856
sg16
I0
sg17
F4.5
sg18
I0
sg19
F4.0
sg20
F3.5
sg21
I0
ssI225
(dp245
g2
F3.5714285714285716
sg3
F3.625
sg4
F3.5
sg5
F3.8333333333333335
sg6
F3.5
sg7
I0
sg8
F3.8333333333333335
sg9
F3.7857142857142856
sg10
F3.875
sg11
F3.5
sg12
F3.5
sg13
I0
sg14
F3.5
sg15
F3.7
sg16
I0
sg17
F3.7058823529411766
sg18
I0
sg19
F1.0
sg20
F3.769230769230769
sg21
I0
ssI226
(dp246
g2
F3.4594594594594597
sg3
F3.598159509202454
sg4
F3.4014084507042255
sg5
F3.5238095238095237
sg6
F2.875
sg7
I0
sg8
F3.668831168831169
sg9
F3.352272727272727
sg10
F3.46875
sg11
F3.242857142857143
sg12
F3.2948717948717947
sg13
F3.7142857142857144
sg14
F3.3642857142857143
sg15
F3.4594594594594597
sg16
I0
sg17
F3.5159010600706715
sg18
F4.166666666666667
sg19
F3.590909090909091
sg20
F3.4166666666666665
sg21
F3.227272727272727
ssI227
(dp247
g2
F4.222222222222222
sg3
F4.275
sg4
F4.15
sg5
F4.023809523809524
sg6
F4.5
sg7
F4.0
sg8
F4.304347826086956
sg9
F4.1
sg10
F4.0
sg11
F4.25
sg12
F4.25
sg13
F3.888888888888889
sg14
F4.333333333333333
sg15
F4.086206896551724
sg16
I0
sg17
F4.4411764705882355
sg18
F4.0
sg19
F4.318181818181818
sg20
F4.333333333333333
sg21
F4.5
ssI228
(dp248
g2
F4.25
sg3
F3.5833333333333335
sg4
F4.045454545454546
sg5
F3.5625
sg6
F4.0
sg7
I0
sg8
F4.0
sg9
F3.0
sg10
F4.0
sg11
I0
sg12
F3.5
sg13
I0
sg14
F3.0
sg15
F3.8214285714285716
sg16
I0
sg17
F2.75
sg18
I0
sg19
F4.0
sg20
F3.875
sg21
I0
ssI229
(dp249
g2
F4.0
sg3
F3.9285714285714284
sg4
F3.6
sg5
F3.769230769230769
sg6
F3.5
sg7
I0
sg8
F3.7857142857142856
sg9
F3.8461538461538463
sg10
F3.5
sg11
F4.0
sg12
F4.5
sg13
F4.5
sg14
F4.0
sg15
F3.7
sg16
I0
sg17
F3.607142857142857
sg18
I0
sg19
F4.333333333333333
sg20
F3.727272727272727
sg21
F3.0
ssI230
(dp250
g2
F2.8125
sg3
F2.5357142857142856
sg4
F3.0625
sg5
F3.24468085106383
sg6
F2.75
sg7
I0
sg8
F2.764705882352941
sg9
F2.625
sg10
F3.0833333333333335
sg11
F2.4
sg12
F2.7058823529411766
sg13
F3.45
sg14
F2.5625
sg15
F3.142857142857143
sg16
I0
sg17
F2.8867924528301887
sg18
I0
sg19
F2.25
sg20
F3.1
sg21
F2.5
ssI231
(dp251
g2
I0
sg3
F3.4444444444444446
sg4
F4.166666666666667
sg5
F3.9285714285714284
sg6
F4.333333333333333
sg7
I0
sg8
F4.428571428571429
sg9
F3.5
sg10
F3.0
sg11
I0
sg12
I0
sg13
F4.0
sg14
I0
sg15
F4.409090909090909
sg16
I0
sg17
F3.25
sg18
I0
sg19
F2.0
sg20
F4.333333333333333
sg21
I0
ssI232
(dp252
g2
F3.3253968253968256
sg3
F3.49388379204893
sg4
F3.2560975609756095
sg5
F3.165
sg6
F2.91875
sg7
F4.5
sg8
F3.4389312977099236
sg9
F3.2745098039215685
sg10
F3.1077586206896552
sg11
F3.127659574468085
sg12
F2.992857142857143
sg13
F3.526315789473684
sg14
F2.9615384615384617
sg15
F3.321167883211679
sg16
I0
sg17
F3.0773333333333333
sg18
F3.3
sg19
F3.921875
sg20
F3.291497975708502
sg21
F3.75
ssI233
(dp253
g2
F3.28125
sg3
F3.463855421686747
sg4
F2.9423076923076925
sg5
F3.1153846153846154
sg6
F4.0
sg7
F3.0
sg8
F3.5609756097560976
sg9
F3.5833333333333335
sg10
F3.2045454545454546
sg11
F3.25
sg12
F3.6
sg13
F3.0384615384615383
sg14
F3.409090909090909
sg15
F3.108695652173913
sg16
I0
sg17
F3.25
sg18
F3.25
sg19
F3.4583333333333335
sg20
F3.2093023255813953
sg21
F3.5
ssI234
(dp254
g2
F3.75
sg3
F3.8043478260869565
sg4
F3.744186046511628
sg5
F3.5576923076923075
sg6
F4.2
sg7
I0
sg8
F3.6818181818181817
sg9
F3.9
sg10
F3.5106382978723403
sg11
F4.1
sg12
F3.8
sg13
F5.0
sg14
F3.404494382022472
sg15
F3.465909090909091
sg16
I0
sg17
F3.458823529411765
sg18
I0
sg19
F2.8
sg20
F3.75
sg21
F3.625
ssI235
(dp255
g2
F3.3333333333333335
sg3
F3.9310344827586206
sg4
F3.2857142857142856
sg5
F3.466666666666667
sg6
F5.0
sg7
I0
sg8
F3.75
sg9
F3.888888888888889
sg10
F3.5
sg11
F4.0
sg12
F4.0
sg13
F5.0
sg14
F3.6
sg15
F3.375
sg16
I0
sg17
F3.423076923076923
sg18
F4.0
sg19
F4.25
sg20
F3.6315789473684212
sg21
F3.0
ssI236
(dp256
g2
F4.333333333333333
sg3
F4.4
sg4
F3.6666666666666665
sg5
F5.0
sg6
F3.5
sg7
I0
sg8
F4.666666666666667
sg9
F4.333333333333333
sg10
F4.333333333333333
sg11
F4.0
sg12
I0
sg13
I0
sg14
I0
sg15
F5.0
sg16
I0
sg17
F4.0588235294117645
sg18
I0
sg19
I0
sg20
F3.857142857142857
sg21
I0
ssI237
(dp257
g2
F3.5
sg3
F3.5
sg4
F3.590909090909091
sg5
F3.0714285714285716
sg6
F3.5
sg7
I0
sg8
F3.392857142857143
sg9
F3.1875
sg10
F2.8333333333333335
sg11
I0
sg12
F3.0
sg13
F3.75
sg14
F3.0
sg15
F3.388888888888889
sg16
I0
sg17
F3.0
sg18
I0
sg19
F3.125
sg20
F3.5238095238095237
sg21
I0
ssI238
(dp258
g2
F4.25
sg3
F3.5833333333333335
sg4
F2.0
sg5
F2.6
sg6
F3.0
sg7
F4.0
sg8
F4.0
sg9
F4.25
sg10
I0
sg11
I0
sg12
I0
sg13
I0
sg14
F1.6666666666666667
sg15
F3.8823529411764706
sg16
I0
sg17
F3.6666666666666665
sg18
I0
sg19
F4.166666666666667
sg20
F4.0588235294117645
sg21
F3.75
ssI239
(dp259
g2
F4.18
sg3
F4.1652892561983474
sg4
F3.9076923076923076
sg5
F3.9642857142857144
sg6
F3.5
sg7
F3.75
sg8
F4.284722222222222
sg9
F3.9871794871794872
sg10
F3.9305555555555554
sg11
F3.75
sg12
F3.933333333333333
sg13
F4.0
sg14
F3.9705882352941178
sg15
F3.996031746031746
sg16
I0
sg17
F3.8511904761904763
sg18
F4.125
sg19
F4.46875
sg20
F4.015
sg21
F4.0
ssI240
(dp260
g2
F3.25
sg3
F3.7142857142857144
sg4
F4.0476190476190474
sg5
F3.8684210526315788
sg6
F4.166666666666667
sg7
I0
sg8
F3.3333333333333335
sg9
F3.6666666666666665
sg10
F4.0
sg11
F3.625
sg12
F3.7
sg13
F3.6666666666666665
sg14
F3.6551724137931036
sg15
F3.9318181818181817
sg16
I0
sg17
F4.072727272727272
sg18
I0
sg19
F4.2
sg20
F3.8333333333333335
sg21
F4.8
ssI241
(dp261
g2
F3.7777777777777777
sg3
F3.9692307692307693
sg4
F4.1
sg5
F3.9285714285714284
sg6
F3.3333333333333335
sg7
I0
sg8
F3.8846153846153846
sg9
F4.1
sg10
F3.5
sg11
F4.125
sg12
F4.0
sg13
F4.333333333333333
sg14
F3.5
sg15
F3.8
sg16
I0
sg17
F4.083333333333333
sg18
I0
sg19
F3.6666666666666665
sg20
F3.772727272727273
sg21
F4.0
ssI242
(dp262
g2
F5.0
sg3
F3.625
sg4
F3.6
sg5
F3.272727272727273
sg6
F5.0
sg7
I0
sg8
F3.5555555555555554
sg9
F3.25
sg10
F3.0
sg11
F3.0
sg12
F3.0
sg13
F3.0
sg14
F3.0
sg15
F3.2
sg16
I0
sg17
F3.25
sg18
I0
sg19
F3.5
sg20
F3.9375
sg21
F3.3333333333333335
ssI243
(dp263
g2
F5.0
sg3
F4.25
sg4
F4.0
sg5
F4.181818181818182
sg6
I0
sg7
I0
sg8
F4.111111111111111
sg9
F4.0
sg10
F3.8
sg11
F3.3333333333333335
sg12
F3.3333333333333335
sg13
F3.0
sg14
F3.3333333333333335
sg15
F4.217391304347826
sg16
I0
sg17
F3.923076923076923
sg18
I0
sg19
F4.25
sg20
F4.466666666666667
sg21
I0
ssI244
(dp264
g2
F3.25
sg3
F3.590909090909091
sg4
F3.7058823529411766
sg5
F3.8846153846153846
sg6
F4.0
sg7
F3.0
sg8
F3.2777777777777777
sg9
F3.8
sg10
F3.8333333333333335
sg11
I0
sg12
I0
sg13
I0
sg14
F3.0
sg15
F3.641509433962264
sg16
I0
sg17
F4.105263157894737
sg18
I0
sg19
F4.066666666666666
sg20
F3.4761904761904763
sg21
F4.333333333333333
ssI245
(dp265
g2
F1.0
sg3
F2.4
sg4
I0
sg5
F4.0
sg6
I0
sg7
I0
sg8
F2.25
sg9
F2.3333333333333335
sg10
F4.0
sg11
I0
sg12
F3.3333333333333335
sg13
I0
sg14
F3.3333333333333335
sg15
I0
sg16
I0
sg17
F3.2
sg18
F3.1666666666666665
sg19
F3.0
sg20
F1.75
sg21
I0
ssI246
(dp266
g2
F4.48
sg3
F4.255102040816326
sg4
F4.197916666666667
sg5
F4.330882352941177
sg6
F4.428571428571429
sg7
F4.833333333333333
sg8
F4.0625
sg9
F4.372340425531915
sg10
F4.362745098039215
sg11
F3.8
sg12
F4.596774193548387
sg13
F4.288461538461538
sg14
F4.596153846153846
sg15
F4.263513513513513
sg16
I0
sg17
F4.265625
sg18
I0
sg19
F4.7
sg20
F4.205357142857143
sg21
F4.5
ssI247
(dp267
g2
F4.131578947368421
sg3
F3.9029850746268657
sg4
F3.5555555555555554
sg5
F3.6587301587301586
sg6
F4.166666666666667
sg7
F3.0
sg8
F3.8833333333333333
sg9
F3.340909090909091
sg10
F3.7580645161290325
sg11
F3.4545454545454546
sg12
F3.7954545454545454
sg13
F3.8
sg14
F3.68
sg15
F3.706896551724138
sg16
I0
sg17
F3.742857142857143
sg18
I0
sg19
F4.125
sg20
F3.8214285714285716
sg21
F3.25
ssI248
(dp268
g2
F4.25
sg3
F3.375
sg4
F3.730769230769231
sg5
F3.7285714285714286
sg6
I0
sg7
I0
sg8
F3.3333333333333335
sg9
F4.0
sg10
F3.75
sg11
I0
sg12
F3.6875
sg13
F3.25
sg14
F3.7142857142857144
sg15
F3.772727272727273
sg16
F4.0
sg17
F3.9583333333333335
sg18
F3.5
sg19
I0
sg20
F3.8333333333333335
sg21
I0
ssI249
(dp269
g2
F3.764044943820225
sg3
F3.9049844236760123
sg4
F3.7331932773109244
sg5
F3.716549295774648
sg6
F3.3195876288659796
sg7
F4.5
sg8
F3.8307291666666665
sg9
F3.6652173913043478
sg10
F3.638888888888889
sg11
F3.8181818181818183
sg12
F3.8219178082191783
sg13
F3.775
sg14
F3.6
sg15
F3.7130434782608694
sg16
I0
sg17
F3.5773809523809526
sg18
F3.8
sg19
F3.8815789473684212
sg20
F3.643854748603352
sg21
F4.09375
ssI250
(dp270
g2
F4.0
sg3
F4.5625
sg4
F3.75
sg5
F4.0
sg6
F4.5
sg7
I0
sg8
F4.5
sg9
F4.571428571428571
sg10
F4.5
sg11
F4.5
sg12
F4.125
sg13
I0
sg14
F4.125
sg15
F3.75
sg16
I0
sg17
F3.5714285714285716
sg18
I0
sg19
F4.5
sg20
F4.0
sg21
F4.5
ssI251
(dp271
g2
F5.0
sg3
F4.8
sg4
F5.0
sg5
F5.0
sg6
F5.0
sg7
I0
sg8
F4.9375
sg9
F5.0
sg10
F5.0
sg11
I0
sg12
F4.166666666666667
sg13
F5.0
sg14
F4.166666666666667
sg15
F5.0
sg16
I0
sg17
F5.0
sg18
F5.0
sg19
F5.0
sg20
F4.944444444444445
sg21
I0
ssI252
(dp272
g2
F4.0
sg3
F4.321428571428571
sg4
F3.857142857142857
sg5
F4.194444444444445
sg6
I0
sg7
I0
sg8
F3.5
sg9
F4.3
sg10
F4.25
sg11
F4.375
sg12
F4.394736842105263
sg13
F4.0
sg14
F4.433333333333334
sg15
F3.8636363636363638
sg16
F3.0
sg17
F4.3
sg18
I0
sg19
I0
sg20
F4.0
sg21
I0
ssI253
(dp273
g2
F4.2
sg3
F4.4
sg4
F3.8333333333333335
sg5
F4.0
sg6
I0
sg7
F4.5
sg8
F4.7
sg9
F4.333333333333333
sg10
F4.7
sg11
F4.75
sg12
F4.625
sg13
F2.0
sg14
I0
sg15
F3.25
sg16
I0
sg17
F4.411764705882353
sg18
F4.3125
sg19
F5.0
sg20
F4.5
sg21
F4.5
ssI254
(dp274
g2
F4.105263157894737
sg3
F4.046153846153846
sg4
F3.6666666666666665
sg5
F3.926470588235294
sg6
F4.1875
sg7
F4.75
sg8
F4.171875
sg9
F3.888888888888889
sg10
F4.1
sg11
F4.25
sg12
F4.5
sg13
F4.125
sg14
F4.25
sg15
F3.841463414634146
sg16
I0
sg17
F3.8703703703703702
sg18
F4.125
sg19
F4.571428571428571
sg20
F3.923076923076923
sg21
F4.0
ssI255
(dp275
g2
F1.0
sg3
F1.4
sg4
F3.5
sg5
F2.7142857142857144
sg6
F3.0
sg7
I0
sg8
F2.4
sg9
F1.5714285714285714
sg10
F1.5
sg11
F2.8
sg12
F2.4
sg13
I0
sg14
F2.3
sg15
F4.166666666666667
sg16
I0
sg17
F2.75
sg18
F1.0
sg19
F5.0
sg20
F3.0
sg21
F1.3333333333333333
ssI256
(dp276
g2
F4.083333333333333
sg3
F3.9909090909090907
sg4
F3.9262295081967213
sg5
F3.903225806451613
sg6
F4.0625
sg7
I0
sg8
F4.204545454545454
sg9
F4.0
sg10
F3.4166666666666665
sg11
F4.0
sg12
F3.5
sg13
F3.911764705882353
sg14
F3.9047619047619047
sg15
F4.0
sg16
I0
sg17
F3.8714285714285714
sg18
F4.0
sg19
F4.125
sg20
F4.011363636363637
sg21
F4.333333333333333
ssI257
(dp277
g2
F4.0
sg3
F3.8333333333333335
sg4
F4.0
sg5
F3.4
sg6
I0
sg7
I0
sg8
F3.0833333333333335
sg9
F3.0
sg10
F3.5
sg11
F3.75
sg12
F3.5
sg13
I0
sg14
F3.5
sg15
F3.611111111111111
sg16
I0
sg17
F3.0
sg18
I0
sg19
I0
sg20
F3.625
sg21
F2.5
ssI258
(dp278
g2
F4.5
sg3
F4.538461538461538
sg4
F3.5
sg5
F3.65
sg6
F4.5
sg7
I0
sg8
F5.0
sg9
F5.0
sg10
F4.083333333333333
sg11
I0
sg12
F4.8
sg13
F2.5
sg14
F4.833333333333333
sg15
F3.7
sg16
I0
sg17
F5.0
sg18
I0
sg19
F2.25
sg20
F4.142857142857143
sg21
I0
ssI259
(dp279
g2
F5.0
sg3
F3.2083333333333335
sg4
F3.0833333333333335
sg5
F2.5833333333333335
sg6
I0
sg7
I0
sg8
F4.0
sg9
F3.4444444444444446
sg10
F2.9166666666666665
sg11
F5.0
sg12
F4.0
sg13
I0
sg14
F3.4
sg15
F2.0625
sg16
I0
sg17
F3.9285714285714284
sg18
I0
sg19
I0
sg20
F2.5
sg21
F1.0
ssI260
(dp280
g2
F3.8333333333333335
sg3
F3.63953488372093
sg4
F3.6666666666666665
sg5
F3.6944444444444446
sg6
F3.5
sg7
F3.0
sg8
F3.77027027027027
sg9
F3.5172413793103448
sg10
F3.8333333333333335
sg11
F4.25
sg12
F4.03125
sg13
I0
sg14
F4.142857142857143
sg15
F3.71875
sg16
I0
sg17
F3.85
sg18
F3.6923076923076925
sg19
F4.5
sg20
F3.838235294117647
sg21
I0
ssI261
(dp281
g2
F4.277777777777778
sg3
F4.266666666666667
sg4
F4.458333333333333
sg5
F3.1666666666666665
sg6
I0
sg7
I0
sg8
F4.026315789473684
sg9
F5.0
sg10
F2.0
sg11
F1.0
sg12
F1.5
sg13
F4.5
sg14
F1.5
sg15
F3.764705882352941
sg16
I0
sg17
F3.3055555555555554
sg18
I0
sg19
F3.8
sg20
F4.147058823529412
sg21
F4.0
ssI262
(dp282
g2
F3.0
sg3
F3.264705882352941
sg4
F4.5
sg5
F3.25
sg6
F3.5
sg7
F3.0
sg8
F3.4
sg9
F2.85
sg10
F2.8
sg11
F2.5
sg12
F2.5
sg13
I0
sg14
F2.5
sg15
F3.2
sg16
I0
sg17
F2.9583333333333335
sg18
I0
sg19
I0
sg20
F2.933333333333333
sg21
I0
ssI263
(dp283
g2
F3.75
sg3
F3.8221153846153846
sg4
F3.7222222222222223
sg5
F3.683673469387755
sg6
F3.3333333333333335
sg7
F4.0
sg8
F3.7291666666666665
sg9
F3.784090909090909
sg10
F3.825
sg11
F3.875
sg12
F4.075
sg13
F4.0
sg14
F4.0
sg15
F3.5444444444444443
sg16
I0
sg17
F3.6581632653061225
sg18
F3.5833333333333335
sg19
F4.136363636363637
sg20
F3.4814814814814814
sg21
F4.0
ssI264
(dp284
g2
F3.0833333333333335
sg3
F3.575
sg4
F3.473684210526316
sg5
F3.5344827586206895
sg6
F3.4
sg7
I0
sg8
F4.0
sg9
F3.6666666666666665
sg10
F4.0
sg11
F3.4444444444444446
sg12
F3.4
sg13
F3.8333333333333335
sg14
F3.642857142857143
sg15
F3.227272727272727
sg16
I0
sg17
F3.727272727272727
sg18
I0
sg19
F3.5714285714285716
sg20
F3.1333333333333333
sg21
I0
ssI265
(dp285
g2
F3.6666666666666665
sg3
F3.2735849056603774
sg4
F3.4923076923076923
sg5
F3.857142857142857
sg6
F2.4166666666666665
sg7
I0
sg8
F3.3333333333333335
sg9
F3.269230769230769
sg10
F3.0
sg11
F3.0
sg12
I0
sg13
F4.0
sg14
F3.0
sg15
F3.590909090909091
sg16
I0
sg17
F3.3636363636363638
sg18
I0
sg19
F3.6
sg20
F3.4166666666666665
sg21
F3.0
ssI266
(dp286
g2
F3.3333333333333335
sg3
F3.542372881355932
sg4
F3.6176470588235294
sg5
F3.659090909090909
sg6
F3.1
sg7
F4.0
sg8
F3.9210526315789473
sg9
F2.526315789473684
sg10
F3.4545454545454546
sg11
F3.2222222222222223
sg12
F2.8
sg13
I0
sg14
F2.125
sg15
F3.7205882352941178
sg16
I0
sg17
F3.3666666666666667
sg18
F3.0
sg19
F4.666666666666667
sg20
F3.673076923076923
sg21
F3.0
ssI267
(dp287
g2
F3.5
sg3
F3.8
sg4
F4.4
sg5
F4.238095238095238
sg6
F4.125
sg7
I0
sg8
F4.0
sg9
F4.714285714285714
sg10
F3.6666666666666665
sg11
F5.0
sg12
I0
sg13
F5.0
sg14
F4.0
sg15
F4.2592592592592595
sg16
I0
sg17
F4.214285714285714
sg18
I0
sg19
F3.0
sg20
F4.333333333333333
sg21
F4.0
ssI268
(dp288
g2
F3.9
sg3
F3.2686567164179103
sg4
F3.3333333333333335
sg5
F3.263157894736842
sg6
F3.3333333333333335
sg7
F4.25
sg8
F3.3461538461538463
sg9
F3.0476190476190474
sg10
F3.2857142857142856
sg11
F3.5
sg12
I0
sg13
I0
sg14
I0
sg15
F3.0
sg16
I0
sg17
F3.3653846153846154
sg18
F2.0
sg19
F2.625
sg20
F2.8857142857142857
sg21
F5.0
ssI269
(dp289
g2
F3.5
sg3
F4.0
sg4
F3.25
sg5
F3.625
sg6
F5.0
sg7
I0
sg8
F3.8
sg9
F4.2
sg10
F4.666666666666667
sg11
F4.0
sg12
F4.5
sg13
I0
sg14
F4.0
sg15
F3.1818181818181817
sg16
I0
sg17
F3.6666666666666665
sg18
I0
sg19
I0
sg20
F3.5714285714285716
sg21
I0
ssI270
(dp290
g2
F3.3333333333333335
sg3
F3.8333333333333335
sg4
F3.0
sg5
F3.3636363636363638
sg6
I0
sg7
I0
sg8
F3.5
sg9
F3.4
sg10
F3.8
sg11
F5.0
sg12
F5.0
sg13
I0
sg14
F5.0
sg15
F2.9285714285714284
sg16
I0
sg17
F2.9411764705882355
sg18
I0
sg19
I0
sg20
F3.066666666666667
sg21
I0
ssI271
(dp291
g2
F3.25
sg3
F3.35
sg4
F3.088235294117647
sg5
F3.3
sg6
F3.25
sg7
F4.0
sg8
F2.9285714285714284
sg9
F3.2
sg10
F2.75
sg11
F3.5
sg12
F3.0
sg13
I0
sg14
F3.0
sg15
F2.6666666666666665
sg16
I0
sg17
F3.5
sg18
I0
sg19
F4.0
sg20
F3.2333333333333334
sg21
I0
ssI272
(dp292
g2
F4.0
sg3
F3.625
sg4
F3.6875
sg5
F3.3333333333333335
sg6
F3.5
sg7
I0
sg8
F4.1
sg9
F2.75
sg10
F2.6666666666666665
sg11
I0
sg12
F3.6666666666666665
sg13
F3.642857142857143
sg14
F3.6666666666666665
sg15
F3.638888888888889
sg16
I0
sg17
F3.75
sg18
I0
sg19
F3.5
sg20
F3.7222222222222223
sg21
F3.5
ssI273
(dp293
g2
F5.0
sg3
F3.9545454545454546
sg4
F4.333333333333333
sg5
F3.9
sg6
F3.25
sg7
I0
sg8
F4.0
sg9
F4.071428571428571
sg10
F4.166666666666667
sg11
F4.6
sg12
F4.666666666666667
sg13
F4.333333333333333
sg14
F4.1
sg15
F3.75
sg16
I0
sg17
F3.9705882352941178
sg18
I0
sg19
F4.0
sg20
F4.0
sg21
F2.0
ssI274
(dp294
g2
F3.371559633027523
sg3
F3.425061425061425
sg4
F3.2370689655172415
sg5
F3.2186440677966104
sg6
F3.1954887218045114
sg7
F3.9285714285714284
sg8
F3.4263392857142856
sg9
F3.1363636363636362
sg10
F3.117142857142857
sg11
F3.2857142857142856
sg12
F3.323232323232323
sg13
F3.176470588235294
sg14
F3.1139240506329116
sg15
F3.245594713656388
sg16
I0
sg17
F3.140909090909091
sg18
F3.5
sg19
F3.6470588235294117
sg20
F3.2555309734513274
sg21
F3.4615384615384617
ssI275
(dp295
g2
F4.56
sg3
F4.133333333333334
sg4
F3.76
sg5
F3.8684210526315788
sg6
F3.5
sg7
F4.333333333333333
sg8
F4.364864864864865
sg9
F4.03
sg10
F4.08
sg11
F4.0
sg12
F3.769230769230769
sg13
I0
sg14
F3.933333333333333
sg15
F3.945945945945946
sg16
I0
sg17
F4.004926108374384
sg18
F4.4
sg19
F4.375
sg20
F4.317460317460317
sg21
F4.4
ssI276
(dp296
g2
F5.0
sg3
F4.857142857142857
sg4
F4.875
sg5
F4.333333333333333
sg6
F4.0
sg7
I0
sg8
I0
sg9
F4.2
sg10
F3.5714285714285716
sg11
F4.333333333333333
sg12
F4.166666666666667
sg13
F5.0
sg14
F3.909090909090909
sg15
F4.7272727272727275
sg16
I0
sg17
F4.346153846153846
sg18
I0
sg19
F5.0
sg20
F4.8
sg21
I0
ssI277
(dp297
g2
F5.0
sg3
F3.0
sg4
F4.0
sg5
F3.75
sg6
I0
sg7
I0
sg8
F3.0
sg9
F3.3333333333333335
sg10
F3.4
sg11
F3.0
sg12
F3.5
sg13
I0
sg14
F3.25
sg15
F3.8461538461538463
sg16
I0
sg17
F3.357142857142857
sg18
I0
sg19
I0
sg20
F4.0
sg21
I0
ssI278
(dp298
g2
F4.166666666666667
sg3
F4.333333333333333
sg4
F3.5
sg5
F3.0
sg6
F3.0
sg7
I0
sg8
F4.333333333333333
sg9
F3.3333333333333335
sg10
I0
sg11
F3.0
sg12
F5.0
sg13
I0
sg14
F3.0
sg15
F4.5
sg16
I0
sg17
F3.4545454545454546
sg18
I0
sg19
F4.75
sg20
F3.8333333333333335
sg21
F3.0
ssI279
(dp299
g2
F3.6
sg3
F3.6742424242424243
sg4
F3.7596153846153846
sg5
F3.7
sg6
F4.25
sg7
F3.5
sg8
F3.702127659574468
sg9
F3.2777777777777777
sg10
F3.5
sg11
F3.0
sg12
F2.5
sg13
F3.4473684210526314
sg14
F2.6666666666666665
sg15
F3.6483516483516483
sg16
I0
sg17
F3.4875
sg18
I0
sg19
F3.5
sg20
F3.708955223880597
sg21
F4.125
ssI280
(dp300
g2
F4.05
sg3
F4.21978021978022
sg4
F3.5
sg5
F3.7857142857142856
sg6
F4.166666666666667
sg7
I0
sg8
F4.25
sg9
F3.93125
sg10
F3.8214285714285716
sg11
F4.045454545454546
sg12
F4.25
sg13
F4.125
sg14
F3.9545454545454546
sg15
F3.76
sg16
I0
sg17
F3.7025862068965516
sg18
F5.0
sg19
F4.166666666666667
sg20
F4.2631578947368425
sg21
I0
ssI281
(dp301
g2
F1.0
sg3
F3.05
sg4
F3.0
sg5
F3.375
sg6
I0
sg7
I0
sg8
F3.0
sg9
F3.0714285714285716
sg10
F4.25
sg11
F2.75
sg12
F2.5
sg13
F4.25
sg14
F2.25
sg15
F3.25
sg16
I0
sg17
F3.45
sg18
I0
sg19
F4.5
sg20
F2.375
sg21
I0
ssI282
(dp302
g2
F3.973684210526316
sg3
F4.201834862385321
sg4
F4.230769230769231
sg5
F4.114583333333333
sg6
F3.6666666666666665
sg7
I0
sg8
F4.10655737704918
sg9
F3.9696969696969697
sg10
F4.229166666666667
sg11
F4.2
sg12
F4.433333333333334
sg13
F4.142857142857143
sg14
F4.361111111111111
sg15
F3.957627118644068
sg16
I0
sg17
F3.8878504672897196
sg18
F3.5
sg19
F4.1923076923076925
sg20
F3.9741379310344827
sg21
F4.333333333333333
ssI283
(dp303
g2
I0
sg3
F3.75
sg4
F4.0
sg5
F4.0
sg6
F3.5
sg7
I0
sg8
F3.4285714285714284
sg9
F3.0
sg10
F3.0
sg11
I0
sg12
F2.5
sg13
F5.0
sg14
F2.8
sg15
F4.0
sg16
I0
sg17
F3.037037037037037
sg18
I0
sg19
F5.0
sg20
F3.3333333333333335
sg21
I0
ssI284
(dp304
g2
F4.0
sg3
F3.3125
sg4
F4.0
sg5
F3.739130434782609
sg6
I0
sg7
I0
sg8
F3.4
sg9
F3.75
sg10
F3.5
sg11
F4.5
sg12
F4.5
sg13
F3.0
sg14
F3.8
sg15
F3.6578947368421053
sg16
I0
sg17
F3.660377358490566
sg18
I0
sg19
F5.0
sg20
F3.6923076923076925
sg21
F3.6666666666666665
ssI285
(dp305
g2
F4.5
sg3
F3.98
sg4
I0
sg5
I0
sg6
F4.25
sg7
F5.0
sg8
F4.357142857142857
sg9
F3.7857142857142856
sg10
I0
sg11
F3.5
sg12
I0
sg13
I0
sg14
F4.0
sg15
F3.75
sg16
I0
sg17
F3.6818181818181817
sg18
I0
sg19
F4.0
sg20
F4.277777777777778
sg21
F4.0
ssI286
(dp306
g2
F3.9375
sg3
F3.952830188679245
sg4
F3.357142857142857
sg5
F3.659090909090909
sg6
F3.95
sg7
F5.0
sg8
F4.0
sg9
F3.4130434782608696
sg10
F3.85
sg11
F3.8333333333333335
sg12
F4.333333333333333
sg13
F3.5
sg14
F4.111111111111111
sg15
F3.7419354838709675
sg16
I0
sg17
F3.4
sg18
I0
sg19
F4.2
sg20
F4.0131578947368425
sg21
F3.0
ssI287
(dp307
g2
F2.2916666666666665
sg3
F3.146153846153846
sg4
F2.361111111111111
sg5
F2.4482758620689653
sg6
F1.5909090909090908
sg7
F4.0
sg8
F2.8863636363636362
sg9
F2.6323529411764706
sg10
F2.9130434782608696
sg11
F2.5625
sg12
F1.8125
sg13
F2.5
sg14
F1.4666666666666666
sg15
F1.8461538461538463
sg16
I0
sg17
F2.689189189189189
sg18
F4.25
sg19
F3.1666666666666665
sg20
F2.2037037037037037
sg21
F1.0
ssI288
(dp308
g2
F3.02027027027027
sg3
F3.31145584725537
sg4
F3.0611702127659575
sg5
F3.1494464944649447
sg6
F2.6588785046728973
sg7
F3.8333333333333335
sg8
F3.370833333333333
sg9
F3.2095808383233533
sg10
F3.2056451612903225
sg11
F3.2363636363636363
sg12
F3.24
sg13
F3.5789473684210527
sg14
F3.1314102564102564
sg15
F3.04251012145749
sg16
I0
sg17
F3.167832167832168
sg18
F3.5
sg19
F3.330508474576271
sg20
F3.0271493212669682
sg21
F3.210526315789474
ssI289
(dp309
g2
I0
sg3
F3.85
sg4
F3.25
sg5
F3.5
sg6
F3.25
sg7
I0
sg8
F4.166666666666667
sg9
F2.8333333333333335
sg10
F3.6666666666666665
sg11
F3.5
sg12
F3.5
sg13
I0
sg14
F3.5
sg15
F3.125
sg16
I0
sg17
F3.590909090909091
sg18
F3.5
sg19
F4.25
sg20
F3.1666666666666665
sg21
F3.5
ssI290
(dp310
g2
F4.2592592592592595
sg3
F4.2439024390243905
sg4
F3.9473684210526314
sg5
F4.314285714285714
sg6
F3.727272727272727
sg7
F4.3
sg8
F4.25531914893617
sg9
F4.270833333333333
sg10
F4.083333333333333
sg11
F4.454545454545454
sg12
F4.142857142857143
sg13
F4.0
sg14
F4.2727272727272725
sg15
F4.125
sg16
I0
sg17
F3.984375
sg18
F4.2
sg19
F4.565217391304348
sg20
F3.9454545454545453
sg21
F4.571428571428571
ssI291
(dp311
g2
F4.666666666666667
sg3
F4.0
sg4
F4.444444444444445
sg5
F4.2592592592592595
sg6
I0
sg7
I0
sg8
F4.5
sg9
F5.0
sg10
F4.1875
sg11
I0
sg12
F3.7142857142857144
sg13
F4.642857142857143
sg14
F4.0
sg15
F4.333333333333333
sg16
I0
sg17
F3.6
sg18
I0
sg19
F4.0
sg20
F4.2
sg21
I0
ssI292
(dp312
g2
F3.2758620689655173
sg3
F3.138888888888889
sg4
F3.4545454545454546
sg5
F3.6293103448275863
sg6
F2.5588235294117645
sg7
I0
sg8
F3.323529411764706
sg9
F3.2604166666666665
sg10
F3.466666666666667
sg11
F3.375
sg12
F3.611111111111111
sg13
F3.6826923076923075
sg14
F3.5434782608695654
sg15
F3.4977477477477477
sg16
I0
sg17
F3.0860927152317883
sg18
F2.75
sg19
F3.6
sg20
F3.365771812080537
sg21
F3.1875
ssI293
(dp313
g2
F3.0
sg3
F3.0
sg4
F3.0
sg5
F2.6666666666666665
sg6
F2.6666666666666665
sg7
F3.0
sg8
F2.8
sg9
F3.0
sg10
F2.5
sg11
F2.0
sg12
F2.5
sg13
I0
sg14
F2.3333333333333335
sg15
F2.5714285714285716
sg16
I0
sg17
F2.4444444444444446
sg18
I0
sg19
F3.0
sg20
F2.625
sg21
I0
ssI294
(dp314
g2
F2.642857142857143
sg3
F2.8958333333333335
sg4
F2.793103448275862
sg5
F2.586206896551724
sg6
F3.1538461538461537
sg7
F2.3333333333333335
sg8
F2.8157894736842106
sg9
F2.4516129032258065
sg10
F2.803921568627451
sg11
F2.5294117647058822
sg12
F2.6666666666666665
sg13
I0
sg14
F2.107142857142857
sg15
F2.643478260869565
sg16
I0
sg17
F2.562700964630225
sg18
F4.0
sg19
F3.3
sg20
F2.6607142857142856
sg21
F2.6
ssI295
(dp315
g2
F4.214285714285714
sg3
F4.086956521739131
sg4
F2.75
sg5
F3.0
sg6
F2.75
sg7
F3.5
sg8
F4.1
sg9
F4.5
sg10
F5.0
sg11
I0
sg12
I0
sg13
F5.0
sg14
F4.5
sg15
F3.2222222222222223
sg16
I0
sg17
F4.1
sg18
I0
sg19
F5.0
sg20
F3.6666666666666665
sg21
F3.5
ssI296
(dp316
g2
F5.0
sg3
F4.666666666666667
sg4
F2.5714285714285716
sg5
F2.9444444444444446
sg6
I0
sg7
I0
sg8
F4.916666666666667
sg9
F5.0
sg10
F3.9
sg11
I0
sg12
F4.666666666666667
sg13
F3.0
sg14
F5.0
sg15
F3.409090909090909
sg16
F4.5
sg17
F4.833333333333333
sg18
F4.5
sg19
F4.75
sg20
F4.785714285714286
sg21
F5.0
ssI297
(dp317
g2
F2.7142857142857144
sg3
F2.7333333333333334
sg4
F1.625
sg5
F1.9
sg6
F2.2
sg7
F3.0
sg8
F3.3333333333333335
sg9
F2.0
sg10
F1.0
sg11
I0
sg12
I0
sg13
F3.0
sg14
I0
sg15
F2.264705882352941
sg16
I0
sg17
F2.857142857142857
sg18
I0
sg19
F2.5
sg20
F2.5294117647058822
sg21
I0
ssI298
(dp318
g2
F2.641509433962264
sg3
F2.4491017964071857
sg4
F2.7102564102564104
sg5
F2.567757009345794
sg6
F2.358695652173913
sg7
F3.625
sg8
F2.696969696969697
sg9
F1.941358024691358
sg10
F2.3672566371681416
sg11
F2.6153846153846154
sg12
F2.8035714285714284
sg13
F2.4262295081967213
sg14
F1.8194444444444444
sg15
F2.5256849315068495
sg16
I0
sg17
F2.197834645669291
sg18
F2.9545454545454546
sg19
F2.6
sg20
F2.497297297297297
sg21
F2.5
ssI299
(dp319
g2
F3.0
sg3
F4.2
sg4
F3.4
sg5
F3.5714285714285716
sg6
F3.75
sg7
I0
sg8
F3.5
sg9
F3.0
sg10
F2.5
sg11
I0
sg12
I0
sg13
I0
sg14
F3.0
sg15
F3.6923076923076925
sg16
I0
sg17
F4.0
sg18
I0
sg19
F4.0
sg20
F3.625
sg21
F4.0
ssI300
(dp320
g2
F3.625
sg3
F4.351851851851852
sg4
F4.2
sg5
F5.0
sg6
F3.5
sg7
F4.0
sg8
F4.1875
sg9
F4.375
sg10
F5.0
sg11
I0
sg12
I0
sg13
F4.0
sg14
I0
sg15
F4.0
sg16
I0
sg17
F4.333333333333333
sg18
I0
sg19
F4.5
sg20
F4.2272727272727275
sg21
F3.5
ssI301
(dp321
g2
F3.5714285714285716
sg3
F3.7636363636363637
sg4
F2.7142857142857144
sg5
F3.103448275862069
sg6
F0.75
sg7
I0
sg8
F3.9047619047619047
sg9
F3.3333333333333335
sg10
F3.107142857142857
sg11
F3.5
sg12
F3.6666666666666665
sg13
F3.0
sg14
F3.090909090909091
sg15
F2.661290322580645
sg16
I0
sg17
F3.230769230769231
sg18
I0
sg19
F3.0
sg20
F3.08974358974359
sg21
F4.5
ssI302
(dp322
g2
F3.5
sg3
F4.266666666666667
sg4
F4.2
sg5
F4.0
sg6
I0
sg7
I0
sg8
F4.0
sg9
F4.0
sg10
I0
sg11
I0
sg12
I0
sg13
I0
sg14
I0
sg15
F3.8333333333333335
sg16
I0
sg17
F4.142857142857143
sg18
I0
sg19
F4.0
sg20
F3.8125
sg21
F3.0
ssI303
(dp323
g2
F3.6666666666666665
sg3
F3.2857142857142856
sg4
F4.243589743589744
sg5
F4.195652173913044
sg6
F3.8
sg7
I0
sg8
F3.0
sg9
F2.75
sg10
F3.0
sg11
I0
sg12
I0
sg13
F5.0
sg14
F5.0
sg15
F4.258620689655173
sg16
I0
sg17
F3.4615384615384617
sg18
I0
sg19
F3.0
sg20
F4.0
sg21
I0
ssI304
(dp324
g2
F3.888888888888889
sg3
F3.9767441860465116
sg4
F4.098039215686274
sg5
F3.984375
sg6
F3.5
sg7
I0
sg8
F3.607142857142857
sg9
F3.890909090909091
sg10
F3.739130434782609
sg11
F3.642857142857143
sg12
F3.857142857142857
sg13
F4.0
sg14
F3.7916666666666665
sg15
F3.8372093023255816
sg16
I0
sg17
F3.763157894736842
sg18
I0
sg19
F4.214285714285714
sg20
F3.8363636363636364
sg21
F3.5714285714285716
ssI305
(dp325
g2
F3.757575757575758
sg3
F3.9983552631578947
sg4
F3.7634730538922154
sg5
F3.6484848484848484
sg6
F4.046875
sg7
F4.25
sg8
F4.17
sg9
F3.8028169014084505
sg10
F3.4782608695652173
sg11
F4.136363636363637
sg12
F3.925925925925926
sg13
F3.3392857142857144
sg14
F3.6857142857142855
sg15
F3.8268551236749118
sg16
I0
sg17
F4.038922155688622
sg18
I0
sg19
F4.420454545454546
sg20
F3.8835341365461846
sg21
F4.5
ssI306
(dp326
g2
F3.1666666666666665
sg3
F3.0588235294117645
sg4
F3.2777777777777777
sg5
F3.5161290322580645
sg6
F3.022727272727273
sg7
I0
sg8
F3.9375
sg9
F3.3653846153846154
sg10
F3.2777777777777777
sg11
F3.4166666666666665
sg12
F3.5694444444444446
sg13
F3.357142857142857
sg14
F3.466666666666667
sg15
F3.4
sg16
I0
sg17
F3.4191176470588234
sg18
I0
sg19
I0
sg20
F2.966666666666667
sg21
F3.0
ssI307
(dp327
g2
F2.8680555555555554
sg3
F2.972140762463343
sg4
F2.8273809523809526
sg5
F3.049019607843137
sg6
F2.0652173913043477
sg7
F3.5
sg8
F3.0964285714285715
sg9
F2.6270718232044197
sg10
F2.9299065420560746
sg11
F2.9479166666666665
sg12
F3.2888888888888888
sg13
F3.3823529411764706
sg14
F2.702127659574468
sg15
F2.842767295597484
sg16
I0
sg17
F2.5453667953667956
sg18
F2.6
sg19
F3.235294117647059
sg20
F2.690582959641256
sg21
F3.409090909090909
ssI308
(dp328
g2
F1.25
sg3
F2.1931818181818183
sg4
F2.7058823529411766
sg5
F3.3333333333333335
sg6
F0.75
sg7
I0
sg8
F1.2727272727272727
sg9
F2.782608695652174
sg10
F3.7083333333333335
sg11
F3.375
sg12
F3.1666666666666665
sg13
F3.6153846153846154
sg14
F3.16
sg15
F2.0285714285714285
sg16
I0
sg17
F2.5833333333333335
sg18
F2.0
sg19
F1.1666666666666667
sg20
F1.5
sg21
I0
ssI309
(dp329
g2
F3.5
sg3
F3.8533333333333335
sg4
F3.2857142857142856
sg5
F3.925
sg6
F2.875
sg7
F3.875
sg8
F3.8055555555555554
sg9
F3.888888888888889
sg10
F3.6666666666666665
sg11
F4.5
sg12
F4.0
sg13
F2.25
sg14
F3.75
sg15
F3.9375
sg16
I0
sg17
F4.041666666666667
sg18
I0
sg19
F4.09375
sg20
F3.58
sg21
F4.3
ssI310
(dp330
g2
F3.8333333333333335
sg3
F3.7916666666666665
sg4
F3.5
sg5
F3.076923076923077
sg6
F2.0
sg7
I0
sg8
F3.1818181818181817
sg9
F3.5
sg10
F3.5
sg11
F3.5
sg12
F4.333333333333333
sg13
I0
sg14
F4.333333333333333
sg15
F3.1315789473684212
sg16
I0
sg17
F3.3684210526315788
sg18
F4.0
sg19
F4.642857142857143
sg20
F2.7222222222222223
sg21
F4.0
ssI311
(dp331
g2
F1.5
sg3
F2.4285714285714284
sg4
F3.0
sg5
F3.125
sg6
F2.75
sg7
I0
sg8
F2.5
sg9
F1.9444444444444444
sg10
F1.6666666666666667
sg11
F2.0
sg12
F3.0
sg13
F3.5
sg14
F3.0
sg15
F2.4
sg16
I0
sg17
F1.4615384615384615
sg18
I0
sg19
F1.75
sg20
F2.625
sg21
F2.75
ssI312
(dp332
g2
F3.5625
sg3
F3.9130434782608696
sg4
F3.5977011494252875
sg5
F3.6923076923076925
sg6
F3.4383561643835616
sg7
F4.2
sg8
F3.8666666666666667
sg9
F3.739130434782609
sg10
F3.8125
sg11
F3.4
sg12
I0
sg13
F4.0
sg14
F4.0
sg15
F3.5277777777777777
sg16
I0
sg17
F3.5
sg18
F5.0
sg19
F4.318181818181818
sg20
F3.5348837209302326
sg21
F3.6666666666666665
ssI313
(dp333
g2
F3.6333333333333333
sg3
F3.606741573033708
sg4
F3.3934426229508197
sg5
F3.425925925925926
sg6
F3.772727272727273
sg7
F3.25
sg8
F3.6315789473684212
sg9
F3.342857142857143
sg10
F3.234375
sg11
F2.4444444444444446
sg12
F2.9375
sg13
F4.0
sg14
F2.3703703703703702
sg15
F3.48
sg16
I0
sg17
F2.9306930693069306
sg18
I0
sg19
F3.6363636363636362
sg20
F3.7058823529411766
sg21
F2.7142857142857144
ssI314
(dp334
g2
F3.0
sg3
F3.4
sg4
F2.9615384615384617
sg5
F2.8421052631578947
sg6
F2.8333333333333335
sg7
I0
sg8
F3.0
sg9
F3.357142857142857
sg10
F3.2142857142857144
sg11
F3.1666666666666665
sg12
F3.125
sg13
F3.6666666666666665
sg14
F3.1538461538461537
sg15
F2.82
sg16
I0
sg17
F3.0625
sg18
I0
sg19
F3.7142857142857144
sg20
F2.710526315789474
sg21
F2.6
ssI315
(dp335
g2
I0
sg3
F3.7777777777777777
sg4
F2.6
sg5
F3.142857142857143
sg6
F2.3333333333333335
sg7
I0
sg8
F4.0
sg9
F4.0
sg10
F3.3333333333333335
sg11
F3.2
sg12
F3.0
sg13
I0
sg14
F3.0
sg15
F3.0
sg16
I0
sg17
F3.375
sg18
I0
sg19
F3.6666666666666665
sg20
F2.3333333333333335
sg21
F3.0
ssI316
(dp336
g2
F3.3
sg3
F3.0714285714285716
sg4
F3.357142857142857
sg5
F2.6666666666666665
sg6
F3.0
sg7
F3.5
sg8
F3.2222222222222223
sg9
F2.4285714285714284
sg10
F2.8333333333333335
sg11
F2.7
sg12
F2.1666666666666665
sg13
I0
sg14
F2.3333333333333335
sg15
F2.857142857142857
sg16
I0
sg17
F2.94
sg18
F3.0
sg19
I0
sg20
F3.176470588235294
sg21
I0
ssI317
(dp337
g2
F3.8333333333333335
sg3
F3.7768595041322315
sg4
F3.473684210526316
sg5
F3.142857142857143
sg6
F3.6363636363636362
sg7
F3.4
sg8
F3.9166666666666665
sg9
F4.090909090909091
sg10
F3.0
sg11
F4.0
sg12
F3.0
sg13
F3.5384615384615383
sg14
F3.0
sg15
F3.6037735849056602
sg16
I0
sg17
F3.6857142857142855
sg18
F3.8333333333333335
sg19
F3.9375
sg20
F3.728395061728395
sg21
F3.0
ssI318
(dp338
g2
F3.6875
sg3
F3.8300492610837438
sg4
F3.5448717948717947
sg5
F3.566666666666667
sg6
F3.370967741935484
sg7
F3.8666666666666667
sg8
F3.761029411764706
sg9
F3.6952380952380954
sg10
F3.581081081081081
sg11
F3.5892857142857144
sg12
F3.741758241758242
sg13
F3.5833333333333335
sg14
F3.676470588235294
sg15
F3.547727272727273
sg16
F4.25
sg17
F3.811355311355311
sg18
F4.017045454545454
sg19
F3.852272727272727
sg20
F3.6223958333333335
sg21
F4.05
ssI319
(dp339
g2
F4.75
sg3
F4.525
sg4
F4.333333333333333
sg5
F4.321428571428571
sg6
I0
sg7
I0
sg8
F4.785714285714286
sg9
F4.25
sg10
F4.083333333333333
sg11
F4.5
sg12
F4.5
sg13
F4.4375
sg14
F4.5
sg15
F4.375
sg16
I0
sg17
F4.15
sg18
I0
sg19
F4.5
sg20
F4.75
sg21
I0
ssI320
(dp340
g2
F4.0
sg3
F3.0
sg4
F3.6875
sg5
F3.625
sg6
F4.0
sg7
I0
sg8
F3.75
sg9
F3.5
sg10
F3.75
sg11
I0
sg12
F3.6
sg13
F3.8333333333333335
sg14
F3.5
sg15
F3.53125
sg16
I0
sg17
F3.5833333333333335
sg18
F4.0
sg19
I0
sg20
F3.5
sg21
I0
ssI321
(dp341
g2
F3.6666666666666665
sg3
F3.823529411764706
sg4
F3.7777777777777777
sg5
F3.8666666666666667
sg6
F3.5
sg7
I0
sg8
F3.625
sg9
F3.5625
sg10
F3.7142857142857144
sg11
F3.3333333333333335
sg12
F3.3333333333333335
sg13
F3.6666666666666665
sg14
F3.375
sg15
F3.7058823529411766
sg16
I0
sg17
F3.5
sg18
I0
sg19
F4.0
sg20
F3.5789473684210527
sg21
I0
ssI322
(dp342
g2
F3.8333333333333335
sg3
F3.4903846153846154
sg4
F3.1818181818181817
sg5
F3.4473684210526314
sg6
F3.0
sg7
F3.5
sg8
F3.473684210526316
sg9
F3.4545454545454546
sg10
F3.0357142857142856
sg11
F2.75
sg12
F2.875
sg13
F3.5
sg14
F3.0
sg15
F3.4
sg16
I0
sg17
F3.3444444444444446
sg18
F4.0
sg19
F3.9
sg20
F3.767857142857143
sg21
I0
ssI323
(dp343
g2
F3.25
sg3
F3.3
sg4
F2.847826086956522
sg5
F3.1956521739130435
sg6
F2.9
sg7
I0
sg8
F3.34375
sg9
F3.2222222222222223
sg10
F3.25
sg11
F3.875
sg12
F3.75
sg13
F2.8333333333333335
sg14
F3.4545454545454546
sg15
F2.896551724137931
sg16
I0
sg17
F3.3076923076923075
sg18
I0
sg19
F3.375
sg20
F3.2
sg21
F2.5
ssI324
(dp344
g2
I0
sg3
F3.1666666666666665
sg4
F3.5
sg5
F3.0
sg6
I0
sg7
I0
sg8
F3.4
sg9
F3.25
sg10
F3.0
sg11
F4.0
sg12
I0
sg13
I0
sg14
I0
sg15
F4.0
sg16
I0
sg17
F3.090909090909091
sg18
I0
sg19
I0
sg20
F3.0
sg21
F2.0
ssI325
(dp345
g2
F3.6206896551724137
sg3
F3.8306451612903225
sg4
F3.5384615384615383
sg5
F3.34
sg6
F3.6538461538461537
sg7
F4.444444444444445
sg8
F3.7636363636363637
sg9
F3.230769230769231
sg10
F3.5
sg11
F3.3636363636363638
sg12
F3.3333333333333335
sg13
I0
sg14
F3.5
sg15
F3.1372549019607843
sg16
I0
sg17
F3.336448598130841
sg18
F2.0
sg19
F3.625
sg20
F3.4555555555555557
sg21
F3.5
ssI326
(dp346
g2
F3.3823529411764706
sg3
F4.090163934426229
sg4
F4.142857142857143
sg5
F4.14
sg6
F3.625
sg7
F3.0
sg8
F4.1875
sg9
F4.111111111111111
sg10
F3.357142857142857
sg11
F5.0
sg12
I0
sg13
F3.5
sg14
I0
sg15
F4.1
sg16
I0
sg17
F3.7777777777777777
sg18
F4.5
sg19
F4.354166666666667
sg20
F4.009433962264151
sg21
F4.5
ssI327
(dp347
g2
F4.0
sg3
F4.233333333333333
sg4
F4.25
sg5
F3.2142857142857144
sg6
F3.9
sg7
I0
sg8
F3.7142857142857144
sg9
F4.6875
sg10
F3.0
sg11
F2.0
sg12
F3.125
sg13
F4.0
sg14
F3.8
sg15
F3.142857142857143
sg16
I0
sg17
F4.232142857142857
sg18
I0
sg19
F5.0
sg20
F3.6
sg21
F5.0
ssI328
(dp348
g2
F2.861111111111111
sg3
F3.2241379310344827
sg4
F3.0638297872340425
sg5
F3.244565217391304
sg6
F3.4166666666666665
sg7
F2.0
sg8
F3.2127659574468086
sg9
F2.9857142857142858
sg10
F3.5
sg11
F3.1785714285714284
sg12
F3.1666666666666665
sg13
F2.84
sg14
F3.341666666666667
sg15
F3.10625
sg16
I0
sg17
F3.2653061224489797
sg18
F3.0
sg19
F3.375
sg20
F3.01
sg21
F2.642857142857143
ssI329
(dp349
g2
F2.6666666666666665
sg3
F3.4583333333333335
sg4
F0.5
sg5
F2.5
sg6
F3.5
sg7
F3.0
sg8
F2.25
sg9
I0
sg10
F2.75
sg11
F5.0
sg12
I0
sg13
I0
sg14
I0
sg15
F1.25
sg16
I0
sg17
F3.111111111111111
sg18
I0
sg19
F3.0
sg20
F2.9285714285714284
sg21
F2.0
ssI330
(dp350
g2
F3.85
sg3
F3.8333333333333335
sg4
F3.406779661016949
sg5
F3.6779661016949152
sg6
F4.157894736842105
sg7
I0
sg8
F3.75
sg9
F3.65
sg10
F3.7162162162162162
sg11
F3.9642857142857144
sg12
F3.9642857142857144
sg13
F3.625
sg14
F3.7916666666666665
sg15
F3.5065789473684212
sg16
I0
sg17
F3.6510416666666665
sg18
I0
sg19
F3.9615384615384617
sg20
F3.5234375
sg21
F4.125
ssI331
(dp351
g2
F3.7083333333333335
sg3
F4.0625
sg4
F3.3714285714285714
sg5
F3.3706896551724137
sg6
F3.8333333333333335
sg7
F5.0
sg8
F3.9878048780487805
sg9
F3.36
sg10
F3.2884615384615383
sg11
F3.1666666666666665
sg12
F3.25
sg13
F3.75
sg14
F3.125
sg15
F3.3863636363636362
sg16
I0
sg17
F3.6140350877192984
sg18
F2.5
sg19
F3.6666666666666665
sg20
F3.6875
sg21
F5.0
ssI332
(dp352
g2
F3.9210526315789473
sg3
F3.77734375
sg4
F3.2142857142857144
sg5
F3.533333333333333
sg6
F3.566666666666667
sg7
F3.875
sg8
F3.824074074074074
sg9
F3.6973684210526314
sg10
F3.4594594594594597
sg11
F3.642857142857143
sg12
F3.772727272727273
sg13
F3.4
sg14
F3.8333333333333335
sg15
F3.4017857142857144
sg16
I0
sg17
F3.6176470588235294
sg18
F4.0
sg19
F3.76
sg20
F3.4873417721518987
sg21
F3.25
ssI333
(dp353
g2
I0
sg3
F3.3
sg4
F1.5
sg5
F2.5
sg6
F2.0
sg7
I0
sg8
F3.0
sg9
F3.75
sg10
F1.0
sg11
I0
sg12
F2.0
sg13
I0
sg14
F1.5
sg15
F3.2
sg16
I0
sg17
F2.5833333333333335
sg18
I0
sg19
F3.0
sg20
F1.75
sg21
F4.0
ssI334
(dp354
g2
F2.933333333333333
sg3
F3.4285714285714284
sg4
F3.4827586206896552
sg5
F3.5254237288135593
sg6
F2.95
sg7
I0
sg8
F3.46875
sg9
F3.6
sg10
F3.5833333333333335
sg11
F3.2222222222222223
sg12
F3.7
sg13
F3.5
sg14
F3.6363636363636362
sg15
F3.4270833333333335
sg16
I0
sg17
F3.5307692307692307
sg18
F3.5
sg19
F3.1
sg20
F3.1818181818181817
sg21
F3.5
ssI335
(dp355
g2
F5.0
sg3
F3.8333333333333335
sg4
F4.0
sg5
F4.666666666666667
sg6
F3.0
sg7
I0
sg8
F3.9285714285714284
sg9
F3.75
sg10
I0
sg11
I0
sg12
I0
sg13
I0
sg14
I0
sg15
F4.3
sg16
I0
sg17
F3.1666666666666665
sg18
I0
sg19
F3.6666666666666665
sg20
F4.4375
sg21
F4.25
ssI336
(dp356
g2
F4.428571428571429
sg3
F4.4
sg4
F5.0
sg5
F4.1875
sg6
F4.25
sg7
F4.0
sg8
F4.444444444444445
sg9
F4.2
sg10
F4.0
sg11
F2.5
sg12
F3.875
sg13
F4.0
sg14
F4.333333333333333
sg15
F4.2631578947368425
sg16
I0
sg17
F4.15
sg18
I0
sg19
F4.142857142857143
sg20
F4.368421052631579
sg21
F5.0
ssI337
(dp357
g2
F4.5
sg3
F4.228571428571429
sg4
F4.5
sg5
F4.357142857142857
sg6
F4.0
sg7
I0
sg8
F4.153846153846154
sg9
F4.428571428571429
sg10
F4.4
sg11
F4.0
sg12
F4.0
sg13
I0
sg14
F4.2
sg15
F4.521739130434782
sg16
I0
sg17
F3.772727272727273
sg18
I0
sg19
F4.333333333333333
sg20
F4.357142857142857
sg21
F4.0
ssI338
(dp358
g2
F3.4
sg3
F3.5277777777777777
sg4
F2.25
sg5
F2.2777777777777777
sg6
F3.3333333333333335
sg7
I0
sg8
F4.090909090909091
sg9
F2.75
sg10
F2.6666666666666665
sg11
I0
sg12
F1.5
sg13
F2.5
sg14
F2.0
sg15
F2.375
sg16
I0
sg17
F2.857142857142857
sg18
F2.0
sg19
F3.6666666666666665
sg20
F3.5
sg21
I0
ssI339
(dp359
g2
F4.190476190476191
sg3
F4.231651376146789
sg4
F3.971014492753623
sg5
F3.7443181818181817
sg6
F4.160714285714286
sg7
F4.5
sg8
F4.295454545454546
sg9
F4.180851063829787
sg10
F3.3676470588235294
sg11
F3.1666666666666665
sg12
F3.9705882352941178
sg13
F3.3378378378378377
sg14
F3.736842105263158
sg15
F3.75
sg16
I0
sg17
F3.943820224719101
sg18
F4.2
sg19
F4.267441860465116
sg20
F4.222222222222222
sg21
F4.166666666666667
ssI340
(dp360
g2
F4.0
sg3
F4.25
sg4
F4.375
sg5
F4.454545454545454
sg6
F4.0
sg7
I0
sg8
F4.125
sg9
F3.5
sg10
F4.0
sg11
F4.0
sg12
F4.0
sg13
F4.5
sg14
F4.0
sg15
F4.1875
sg16
I0
sg17
F3.75
sg18
I0
sg19
F4.0
sg20
F4.2
sg21
F5.0
ssI341
(dp361
g2
F5.0
sg3
F3.909090909090909
sg4
F3.45
sg5
F3.8823529411764706
sg6
F4.0
sg7
I0
sg8
F4.0
sg9
F3.6875
sg10
F3.875
sg11
F3.0
sg12
F4.0
sg13
F4.0
sg14
F3.75
sg15
F3.75
sg16
I0
sg17
F3.723684210526316
sg18
I0
sg19
F4.0
sg20
F3.9
sg21
F3.5
ssI342
(dp362
g2
F3.0
sg3
F3.08
sg4
F2.4444444444444446
sg5
F3.0
sg6
F2.625
sg7
I0
sg8
F3.25
sg9
F2.7777777777777777
sg10
F2.4
sg11
I0
sg12
F3.0
sg13
I0
sg14
F2.375
sg15
F3.1818181818181817
sg16
I0
sg17
F2.911764705882353
sg18
I0
sg19
I0
sg20
F3.2777777777777777
sg21
F2.0
ssI343
(dp363
g2
F4.0
sg3
F4.15
sg4
F3.888888888888889
sg5
F3.8666666666666667
sg6
F3.625
sg7
F4.0
sg8
F4.119047619047619
sg9
F3.857142857142857
sg10
F3.75
sg11
I0
sg12
F3.5
sg13
I0
sg14
F4.0
sg15
F3.7666666666666666
sg16
I0
sg17
F3.8461538461538463
sg18
F4.333333333333333
sg19
F5.0
sg20
F4.25
sg21
F5.0
ssI344
(dp364
g2
F2.9
sg3
F3.3846153846153846
sg4
F4.134615384615385
sg5
F4.392857142857143
sg6
F1.6
sg7
F1.5
sg8
F3.642857142857143
sg9
F3.9642857142857144
sg10
F4.1875
sg11
F4.5
sg12
F4.5
sg13
F3.9285714285714284
sg14
F4.357142857142857
sg15
F4.225806451612903
sg16
I0
sg17
F4.083333333333333
sg18
I0
sg19
F3.875
sg20
F3.4473684210526314
sg21
F4.75
ssI345
(dp365
g2
F3.7
sg3
F3.926470588235294
sg4
F3.9444444444444446
sg5
F3.75
sg6
F3.7916666666666665
sg7
I0
sg8
F3.75
sg9
F4.021739130434782
sg10
F4.166666666666667
sg11
F4.0
sg12
I0
sg13
I0
sg14
F3.0
sg15
F3.9285714285714284
sg16
I0
sg17
F3.8653846153846154
sg18
I0
sg19
F4.25
sg20
F3.7222222222222223
sg21
I0
ssI346
(dp366
g2
F3.75
sg3
F3.73109243697479
sg4
F3.25
sg5
F3.3333333333333335
sg6
F3.8541666666666665
sg7
F3.8333333333333335
sg8
F3.641025641025641
sg9
F3.767857142857143
sg10
F3.55
sg11
F3.5
sg12
F4.0
sg13
I0
sg14
I0
sg15
F3.357142857142857
sg16
I0
sg17
F3.4027777777777777
sg18
F4.0
sg19
F3.9
sg20
F3.6770833333333335
sg21
F3.5
ssI347
(dp367
g2
F3.25
sg3
F3.6
sg4
F3.3333333333333335
sg5
F3.6470588235294117
sg6
F4.0
sg7
I0
sg8
F3.0
sg9
F3.75
sg10
F4.0
sg11
F4.0
sg12
F4.25
sg13
F4.0
sg14
F4.0
sg15
F3.3529411764705883
sg16
I0
sg17
F3.7222222222222223
sg18
I0
sg19
F3.3333333333333335
sg20
F3.5
sg21
F3.0
ssI348
(dp368
g2
F4.666666666666667
sg3
F4.705882352941177
sg4
F4.875
sg5
F4.545454545454546
sg6
F4.666666666666667
sg7
I0
sg8
F4.785714285714286
sg9
F4.875
sg10
F4.7
sg11
F4.5
sg12
I0
sg13
F4.75
sg14
I0
sg15
F4.5625
sg16
I0
sg17
F4.653846153846154
sg18
F4.0
sg19
F4.642857142857143
sg20
F4.84375
sg21
F4.0
ssI349
(dp369
g2
I0
sg3
F3.75
sg4
F3.5
sg5
F3.4285714285714284
sg6
F4.0
sg7
I0
sg8
F4.0
sg9
F3.8181818181818183
sg10
F3.25
sg11
F3.6666666666666665
sg12
F3.6666666666666665
sg13
F3.5
sg14
F3.8
sg15
F3.9
sg16
I0
sg17
F3.6923076923076925
sg18
I0
sg19
F4.0
sg20
F3.7857142857142856
sg21
F3.5
ssI350
(dp370
g2
F3.5
sg3
F3.125
sg4
F3.7777777777777777
sg5
F3.4
sg6
F3.0
sg7
I0
sg8
F3.0
sg9
F3.0
sg10
F3.1666666666666665
sg11
F3.0
sg12
F3.3333333333333335
sg13
I0
sg14
F3.25
sg15
F3.4
sg16
I0
sg17
F3.1666666666666665
sg18
I0
sg19
I0
sg20
F3.3125
sg21
I0
ssI351
(dp371
g2
F3.5789473684210527
sg3
F3.8152173913043477
sg4
F3.59375
sg5
F3.576923076923077
sg6
F3.2954545454545454
sg7
F4.0
sg8
F3.9571428571428573
sg9
F3.706896551724138
sg10
F3.409090909090909
sg11
F4.0
sg12
F3.5
sg13
F3.5
sg14
F3.1666666666666665
sg15
F3.5961538461538463
sg16
I0
sg17
F3.4833333333333334
sg18
I0
sg19
F4.0
sg20
F3.6551724137931036
sg21
I0
ssI352
(dp372
g2
F4.052631578947368
sg3
F3.9444444444444446
sg4
F3.7865168539325844
sg5
F3.789772727272727
sg6
F3.9473684210526314
sg7
F3.0
sg8
F3.7884615384615383
sg9
F3.6
sg10
F3.588888888888889
sg11
F3.1666666666666665
sg12
F3.7083333333333335
sg13
F3.9210526315789473
sg14
F3.2916666666666665
sg15
F3.5689655172413794
sg16
I0
sg17
F3.4153846153846152
sg18
I0
sg19
F4.666666666666667
sg20
F3.75
sg21
F3.875
ssI353
(dp373
g2
F4.0
sg3
F3.793103448275862
sg4
F2.909090909090909
sg5
F3.2777777777777777
sg6
F3.7142857142857144
sg7
I0
sg8
F3.772727272727273
sg9
F3.125
sg10
F3.5
sg11
F3.6666666666666665
sg12
F4.0
sg13
F4.0
sg14
F3.75
sg15
F3.1470588235294117
sg16
I0
sg17
F3.324324324324324
sg18
F5.0
sg19
F3.5
sg20
F3.875
sg21
F3.4
ssI354
(dp374
g2
F3.8863636363636362
sg3
F3.8333333333333335
sg4
F3.6666666666666665
sg5
F3.5
sg6
F3.75
sg7
F4.5
sg8
F3.965909090909091
sg9
F3.857142857142857
sg10
F3.642857142857143
sg11
F3.5
sg12
F3.111111111111111
sg13
F2.95
sg14
F3.5
sg15
F3.6894736842105265
sg16
I0
sg17
F3.5972222222222223
sg18
F3.6666666666666665
sg19
F3.6666666666666665
sg20
F3.7471264367816093
sg21
F3.6666666666666665
ssI355
(dp375
g2
F5.0
sg3
F3.6666666666666665
sg4
F4.0
sg5
F3.9
sg6
I0
sg7
I0
sg8
F4.0
sg9
F4.142857142857143
sg10
F3.0
sg11
F5.0
sg12
F3.0
sg13
I0
sg14
F3.0
sg15
F4.111111111111111
sg16
I0
sg17
F3.5714285714285716
sg18
I0
sg19
F3.0
sg20
F4.333333333333333
sg21
F4.0
ssI356
(dp376
g2
F4.038461538461538
sg3
F4.057823129251701
sg4
F4.065789473684211
sg5
F3.8773584905660377
sg6
F4.375
sg7
F4.25
sg8
F4.166666666666667
sg9
F4.090277777777778
sg10
F3.607142857142857
sg11
F4.041666666666667
sg12
F3.95
sg13
F3.857142857142857
sg14
F4.45
sg15
F3.8384615384615386
sg16
I0
sg17
F4.058659217877095
sg18
I0
sg19
F4.0
sg20
F3.9901960784313726
sg21
F4.333333333333333
ssI357
(dp377
g2
F4.185185185185185
sg3
F4.081005586592179
sg4
F3.789473684210526
sg5
F3.948529411764706
sg6
F3.98
sg7
F3.75
sg8
F4.0
sg9
F3.8990384615384617
sg10
F4.036363636363636
sg11
F4.012195121951219
sg12
F4.015625
sg13
F4.176470588235294
sg14
F4.0
sg15
F3.8846153846153846
sg16
I0
sg17
F3.7976190476190474
sg18
F4.25
sg19
F4.142857142857143
sg20
F3.9051724137931036
sg21
F3.875
ssI358
(dp378
g2
F3.25
sg3
F3.6346153846153846
sg4
F4.0
sg5
F2.9166666666666665
sg6
F2.5
sg7
I0
sg8
F0.5
sg9
F3.8448275862068964
sg10
F4.0
sg11
F2.25
sg12
F4.0
sg13
F3.5
sg14
F4.0
sg15
F2.0
sg16
I0
sg17
F2.96875
sg18
F0.75
sg19
F2.75
sg20
F2.1666666666666665
sg21
I0
ssI359
(dp379
g2
F3.625
sg3
F3.8289473684210527
sg4
F2.9444444444444446
sg5
F3.3043478260869565
sg6
F2.75
sg7
I0
sg8
F3.7142857142857144
sg9
F3.710526315789474
sg10
F3.4375
sg11
F2.6666666666666665
sg12
F4.25
sg13
F3.5
sg14
F3.8333333333333335
sg15
F2.8095238095238093
sg16
I0
sg17
F3.2
sg18
I0
sg19
F4.75
sg20
F3.2954545454545454
sg21
F3.1666666666666665
ssI360
(dp380
g2
F4.142857142857143
sg3
F3.4615384615384617
sg4
F1.75
sg5
I0
sg6
F2.5
sg7
F5.0
sg8
F4.166666666666667
sg9
F2.0
sg10
F5.0
sg11
I0
sg12
I0
sg13
I0
sg14
F1.0
sg15
F3.25
sg16
I0
sg17
F2.8333333333333335
sg18
I0
sg19
F5.0
sg20
F3.411764705882353
sg21
I0
ssI361
(dp381
g2
F3.5
sg3
F3.090909090909091
sg4
F2.8214285714285716
sg5
F3.0892857142857144
sg6
F2.5
sg7
F2.0
sg8
F3.1470588235294117
sg9
F3.15625
sg10
F3.2142857142857144
sg11
F3.0
sg12
F3.0
sg13
F3.7
sg14
F2.6666666666666665
sg15
F3.24468085106383
sg16
I0
sg17
F3.375
sg18
I0
sg19
F3.2142857142857144
sg20
F3.206896551724138
sg21
I0
ssI362
(dp382
g2
F4.166666666666667
sg3
F4.336363636363636
sg4
F4.2105263157894735
sg5
F4.25
sg6
F4.285714285714286
sg7
F4.333333333333333
sg8
F4.311111111111111
sg9
F4.142857142857143
sg10
F4.454545454545454
sg11
F4.333333333333333
sg12
F4.1
sg13
F3.8333333333333335
sg14
F4.0
sg15
F4.1875
sg16
I0
sg17
F4.066666666666666
sg18
I0
sg19
F4.416666666666667
sg20
F4.229166666666667
sg21
F4.875
ssI363
(dp383
g2
F4.0
sg3
F3.55
sg4
F2.8333333333333335
sg5
F3.0
sg6
F2.5
sg7
I0
sg8
F3.9
sg9
F3.3333333333333335
sg10
F2.8333333333333335
sg11
I0
sg12
F2.0
sg13
I0
sg14
F2.0
sg15
F3.0416666666666665
sg16
I0
sg17
F3.6
sg18
I0
sg19
I0
sg20
F2.875
sg21
I0
ssI364
(dp384
g2
F3.6666666666666665
sg3
F4.2
sg4
F3.8
sg5
F4.2
sg6
I0
sg7
I0
sg8
F5.0
sg9
F3.5
sg10
F5.0
sg11
F4.0
sg12
F4.0
sg13
I0
sg14
F4.333333333333333
sg15
F4.083333333333333
sg16
I0
sg17
F4.666666666666667
sg18
I0
sg19
I0
sg20
F4.3076923076923075
sg21
I0
ssI365
(dp385
g2
F2.0
sg3
F2.517857142857143
sg4
F2.75
sg5
F2.7357142857142858
sg6
F2.235294117647059
sg7
I0
sg8
F2.797872340425532
sg9
F2.533333333333333
sg10
F2.7941176470588234
sg11
F2.3
sg12
F2.4642857142857144
sg13
F2.6923076923076925
sg14
F2.5238095238095237
sg15
F2.7795698924731185
sg16
I0
sg17
F3.0405405405405403
sg18
F1.25
sg19
F2.9
sg20
F2.2450980392156863
sg21
F3.5
ssI366
(dp386
g2
F4.0
sg3
F4.1923076923076925
sg4
F3.642857142857143
sg5
F3.9
sg6
I0
sg7
F3.0
sg8
F4.1
sg9
F3.5
sg10
F4.375
sg11
I0
sg12
F3.75
sg13
F4.142857142857143
sg14
F4.0
sg15
F3.8636363636363638
sg16
I0
sg17
F3.4
sg18
I0
sg19
F4.25
sg20
F3.909090909090909
sg21
I0
ssI367
(dp387
g2
F4.0
sg3
F4.0
sg4
F4.2
sg5
F4.0344827586206895
sg6
F4.0
sg7
F4.0
sg8
F4.181818181818182
sg9
F3.807017543859649
sg10
F4.0476190476190474
sg11
F3.909090909090909
sg12
F3.857142857142857
sg13
F4.0
sg14
F4.2592592592592595
sg15
F3.9130434782608696
sg16
I0
sg17
F3.7358490566037736
sg18
I0
sg19
F4.0
sg20
F4.133333333333334
sg21
F3.8
ssI368
(dp388
g2
F2.9361702127659575
sg3
F3.101063829787234
sg4
F2.6588235294117646
sg5
F2.7904761904761903
sg6
F2.731707317073171
sg7
F3.5
sg8
F2.881818181818182
sg9
F2.8461538461538463
sg10
F2.4347826086956523
sg11
F2.75
sg12
I0
sg13
I0
sg14
F2.25
sg15
F2.661417322834646
sg16
I0
sg17
F2.728395061728395
sg18
I0
sg19
F3.142857142857143
sg20
F2.8086956521739133
sg21
F2.923076923076923
ssI369
(dp389
g2
F3.772727272727273
sg3
F3.5294117647058822
sg4
F3.3333333333333335
sg5
F3.2222222222222223
sg6
F4.0
sg7
I0
sg8
F3.625
sg9
F3.3846153846153846
sg10
F3.2222222222222223
sg11
F3.0833333333333335
sg12
F3.75
sg13
F3.5
sg14
F3.0
sg15
F3.2564102564102564
sg16
I0
sg17
F3.476923076923077
sg18
F3.25
sg19
F3.3333333333333335
sg20
F3.5
sg21
F3.0
ssI370
(dp390
g2
F3.7777777777777777
sg3
F3.734375
sg4
F3.111111111111111
sg5
F3.2777777777777777
sg6
F3.8
sg7
F3.0
sg8
F3.5
sg9
F3.6666666666666665
sg10
F3.4642857142857144
sg11
I0
sg12
F3.4
sg13
F3.0833333333333335
sg14
F3.25
sg15
F3.4125
sg16
I0
sg17
F3.7027027027027026
sg18
F3.5
sg19
F3.5
sg20
F3.574074074074074
sg21
I0
ssI371
(dp391
g2
F4.6
sg3
F4.8
sg4
F4.714285714285714
sg5
F4.552631578947368
sg6
F4.625
sg7
F5.0
sg8
F4.4
sg9
F4.75
sg10
F4.535714285714286
sg11
F4.25
sg12
F4.666666666666667
sg13
F4.75
sg14
F4.3
sg15
F4.433333333333334
sg16
I0
sg17
F4.5
sg18
I0
sg19
I0
sg20
F4.681818181818182
sg21
I0
ssI372
(dp392
g2
F3.526315789473684
sg3
F3.3333333333333335
sg4
F3.3793103448275863
sg5
F3.4318181818181817
sg6
F3.5625
sg7
F2.5
sg8
F3.511111111111111
sg9
F3.577777777777778
sg10
F3.1666666666666665
sg11
F2.9166666666666665
sg12
F2.5
sg13
F3.6666666666666665
sg14
F2.761904761904762
sg15
F3.6721311475409837
sg16
I0
sg17
F3.2028985507246377
sg18
F3.0
sg19
F3.789473684210526
sg20
F3.4285714285714284
sg21
F3.5714285714285716
ssI373
(dp393
g2
F3.625
sg3
F3.813953488372093
sg4
F2.6923076923076925
sg5
F2.619047619047619
sg6
F4.0
sg7
I0
sg8
F3.5555555555555554
sg9
F3.0
sg10
F3.1538461538461537
sg11
F5.0
sg12
F4.5
sg13
F3.5
sg14
F3.1176470588235294
sg15
F2.5714285714285716
sg16
I0
sg17
F2.5625
sg18
I0
sg19
F3.6
sg20
F3.433333333333333
sg21
F3.0
ssI374
(dp394
g2
F5.0
sg3
F3.8
sg4
F3.6666666666666665
sg5
F3.533333333333333
sg6
F4.0
sg7
I0
sg8
F3.5
sg9
F3.75
sg10
F3.75
sg11
F3.0
sg12
F3.0
sg13
F3.0
sg14
F3.0
sg15
F3.6
sg16
I0
sg17
F4.25
sg18
I0
sg19
F4.333333333333333
sg20
F3.8125
sg21
F3.0
ssI375
(dp395
g2
F4.75
sg3
F4.28125
sg4
F3.25
sg5
F4.0625
sg6
F5.0
sg7
I0
sg8
F4.333333333333333
sg9
F3.5555555555555554
sg10
F3.0
sg11
F3.0
sg12
F3.1666666666666665
sg13
F3.0
sg14
F3.375
sg15
F3.5416666666666665
sg16
I0
sg17
F3.95
sg18
I0
sg19
F4.5
sg20
F3.6875
sg21
I0
ssI376
(dp396
g2
F4.375
sg3
F4.134146341463414
sg4
F4.109756097560975
sg5
F4.020408163265306
sg6
F3.642857142857143
sg7
F4.0
sg8
F4.270833333333333
sg9
F3.8636363636363638
sg10
F4.035714285714286
sg11
F3.5
sg12
F4.35
sg13
F4.357142857142857
sg14
F4.1923076923076925
sg15
F4.063380281690141
sg16
I0
sg17
F3.7804878048780486
sg18
I0
sg19
F4.277777777777778
sg20
F4.239583333333333
sg21
F4.25
ssI377
(dp397
g2
F4.75
sg3
F4.117021276595745
sg4
F4.166666666666667
sg5
F4.267857142857143
sg6
F3.861111111111111
sg7
F4.0
sg8
F3.857142857142857
sg9
F3.5714285714285716
sg10
F3.9523809523809526
sg11
F3.15
sg12
F4.125
sg13
F4.5
sg14
F3.3333333333333335
sg15
F3.9827586206896552
sg16
I0
sg17
F3.5510204081632653
sg18
F4.0
sg19
F4.05
sg20
F4.0
sg21
F3.875
ssI378
(dp398
g2
F4.4
sg3
F4.0
sg4
F4.142857142857143
sg5
F4.107142857142857
sg6
F3.25
sg7
I0
sg8
F4.027777777777778
sg9
F3.5
sg10
F4.25
sg11
F4.5
sg12
F4.25
sg13
F4.388888888888889
sg14
F4.25
sg15
F3.7777777777777777
sg16
I0
sg17
F3.8333333333333335
sg18
I0
sg19
F4.0
sg20
F3.888888888888889
sg21
F3.0
ssI379
(dp399
g2
F3.0
sg3
F3.823529411764706
sg4
F3.6
sg5
F3.6666666666666665
sg6
F3.0
sg7
I0
sg8
F2.7777777777777777
sg9
F3.4285714285714284
sg10
F2.5
sg11
F3.0
sg12
F3.0
sg13
F4.0
sg14
F4.0
sg15
F3.3333333333333335
sg16
I0
sg17
F2.923076923076923
sg18
I0
sg19
F4.25
sg20
F3.3125
sg21
F5.0
ssI380
(dp400
g2
F3.553921568627451
sg3
F3.741042345276873
sg4
F3.7884012539184955
sg5
F3.7736572890025575
sg6
F3.441919191919192
sg7
F4.666666666666667
sg8
F3.720873786407767
sg9
F3.5170454545454546
sg10
F3.641552511415525
sg11
F3.836734693877551
sg12
F3.9403973509933774
sg13
F3.704225352112676
sg14
F3.6134969325153374
sg15
F3.705785123966942
sg16
F4.0
sg17
F3.6432432432432433
sg18
F3.75
sg19
F4.03030303030303
sg20
F3.5751633986928106
sg21
F4.113636363636363
ssI381
(dp401
g2
F3.5833333333333335
sg3
F3.779874213836478
sg4
F3.3
sg5
F3.4806629834254146
sg6
F3.26
sg7
I0
sg8
F3.6744186046511627
sg9
F3.6944444444444446
sg10
F3.5350877192982457
sg11
F3.742424242424242
sg12
F3.7857142857142856
sg13
F3.625
sg14
F3.5489130434782608
sg15
F3.388111888111888
sg16
I0
sg17
F3.4585365853658536
sg18
F3.5
sg19
F4.05
sg20
F3.550925925925926
sg21
F3.2
ssI382
(dp402
g2
F4.0
sg3
F4.147058823529412
sg4
F3.441666666666667
sg5
F3.754166666666667
sg6
F2.823529411764706
sg7
I0
sg8
F3.7837837837837838
sg9
F3.7454545454545456
sg10
F3.727272727272727
sg11
F4.0
sg12
F3.625
sg13
F4.112903225806452
sg14
F3.5444444444444443
sg15
F3.480916030534351
sg16
I0
sg17
F3.1160714285714284
sg18
I0
sg19
F4.083333333333333
sg20
F3.64375
sg21
F4.166666666666667
ssI383
(dp403
g2
F3.75
sg3
F4.0
sg4
F3.5
sg5
F3.5
sg6
F4.0
sg7
I0
sg8
F3.3333333333333335
sg9
F3.888888888888889
sg10
I0
sg11
I0
sg12
I0
sg13
F4.0
sg14
I0
sg15
F3.3333333333333335
sg16
I0
sg17
F3.6923076923076925
sg18
I0
sg19
F4.666666666666667
sg20
F3.3333333333333335
sg21
I0
ssI384
(dp404
g2
F3.0
sg3
F3.125
sg4
F2.888888888888889
sg5
F3.909090909090909
sg6
F2.2
sg7
I0
sg8
F3.8461538461538463
sg9
F3.3333333333333335
sg10
F3.6666666666666665
sg11
I0
sg12
F4.0
sg13
I0
sg14
F3.5
sg15
F2.6153846153846154
sg16
I0
sg17
F3.033333333333333
sg18
I0
sg19
F4.0
sg20
F3.2857142857142856
sg21
F2.3333333333333335
ssI385
(dp405
g2
F3.25
sg3
F3.3666666666666667
sg4
F3.65625
sg5
F3.510204081632653
sg6
F3.4285714285714284
sg7
F3.5
sg8
F3.4375
sg9
F3.1794871794871793
sg10
F3.3461538461538463
sg11
F3.263157894736842
sg12
F3.3333333333333335
sg13
F3.6666666666666665
sg14
F3.0714285714285716
sg15
F3.357142857142857
sg16
I0
sg17
F3.417910447761194
sg18
F3.5
sg19
F3.8461538461538463
sg20
F3.1951219512195124
sg21
F3.272727272727273
ssI386
(dp406
g2
F2.857142857142857
sg3
F2.9047619047619047
sg4
F2.4
sg5
F2.5789473684210527
sg6
F3.2
sg7
I0
sg8
F2.727272727272727
sg9
F3.0
sg10
F2.0
sg11
F3.0
sg12
F3.0
sg13
I0
sg14
F3.3333333333333335
sg15
F2.3947368421052633
sg16
I0
sg17
F3.0526315789473686
sg18
I0
sg19
F3.0
sg20
F2.6857142857142855
sg21
F3.5
ssI387
(dp407
g2
F3.5720338983050848
sg3
F3.5207877461706785
sg4
F3.2653846153846153
sg5
F3.1902173913043477
sg6
F3.0728476821192054
sg7
F4.06
sg8
F3.454314720812183
sg9
F3.25
sg10
F3.1712962962962963
sg11
F3.0
sg12
F3.4479166666666665
sg13
F3.4285714285714284
sg14
F2.8706896551724137
sg15
F3.150717703349282
sg16
I0
sg17
F2.9835616438356163
sg18
F3.5555555555555554
sg19
F3.58974358974359
sg20
F3.3737704918032785
sg21
F3.108695652173913
ssI388
(dp408
g2
F2.0
sg3
F1.0
sg4
F2.0
sg5
F4.21875
sg6
I0
sg7
I0
sg8
F3.75
sg9
F3.4166666666666665
sg10
F3.7142857142857144
sg11
F3.0
sg12
F4.1875
sg13
F5.0
sg14
F3.85
sg15
F4.166666666666667
sg16
I0
sg17
F4.0
sg18
I0
sg19
I0
sg20
F2.75
sg21
I0
ssI389
(dp409
g2
F4.0
sg3
F4.375
sg4
F4.6
sg5
F4.363636363636363
sg6
I0
sg7
I0
sg8
F4.2
sg9
F4.333333333333333
sg10
F4.333333333333333
sg11
I0
sg12
F5.0
sg13
I0
sg14
F5.0
sg15
F4.142857142857143
sg16
I0
sg17
F3.6666666666666665
sg18
I0
sg19
I0
sg20
F4.333333333333333
sg21
I0
ssI390
(dp410
g2
F3.7142857142857144
sg3
F3.825
sg4
F3.9583333333333335
sg5
F4.125
sg6
F4.0
sg7
I0
sg8
F3.4545454545454546
sg9
F4.0
sg10
F4.35
sg11
F3.8333333333333335
sg12
F4.5
sg13
F2.5
sg14
F3.8333333333333335
sg15
F3.6333333333333333
sg16
I0
sg17
F3.625
sg18
F4.75
sg19
F4.375
sg20
F4.0
sg21
F3.5
ssI391
(dp411
g2
F3.7954545454545454
sg3
F3.8878048780487804
sg4
F3.3214285714285716
sg5
F3.4
sg6
F3.0
sg7
F4.75
sg8
F3.8
sg9
F3.8780487804878048
sg10
F4.12
sg11
F3.8947368421052633
sg12
F3.923076923076923
sg13
F3.6666666666666665
sg14
F4.0625
sg15
F3.241758241758242
sg16
I0
sg17
F3.7704918032786887
sg18
F4.333333333333333
sg19
F3.9545454545454546
sg20
F3.392857142857143
sg21
F3.625
ssI392
(dp412
g2
I0
sg3
F3.25
sg4
F2.6666666666666665
sg5
F3.5
sg6
F3.0
sg7
I0
sg8
F2.8
sg9
F3.142857142857143
sg10
F4.0
sg11
I0
sg12
I0
sg13
I0
sg14
I0
sg15
F3.3333333333333335
sg16
I0
sg17
F3.2
sg18
I0
sg19
I0
sg20
F2.8
sg21
I0
ssI393
(dp413
g2
F3.3181818181818183
sg3
F3.5813953488372094
sg4
F3.704081632653061
sg5
F4.375
sg6
F3.7142857142857144
sg7
F1.3333333333333333
sg8
F3.765625
sg9
F3.7142857142857144
sg10
F4.84375
sg11
F5.0
sg12
F4.25
sg13
F4.2
sg14
F4.0
sg15
F3.880281690140845
sg16
I0
sg17
F3.7857142857142856
sg18
F5.0
sg19
F3.625
sg20
F3.634920634920635
sg21
I0
ssI394
(dp414
g2
F5.0
sg3
F3.375
sg4
F2.0
sg5
F2.375
sg6
I0
sg7
I0
sg8
F3.4
sg9
F3.0
sg10
F2.3333333333333335
sg11
F2.0
sg12
F2.0
sg13
F2.5
sg14
F2.25
sg15
F3.0
sg16
I0
sg17
F2.75
sg18
I0
sg19
F4.5
sg20
F3.375
sg21
F3.0
ssI395
(dp415
g2
F4.5
sg3
F2.875
sg4
F3.7
sg5
F2.96
sg6
I0
sg7
I0
sg8
F3.4285714285714284
sg9
F3.1666666666666665
sg10
F2.769230769230769
sg11
F2.5555555555555554
sg12
F2.6
sg13
F3.0
sg14
F2.5416666666666665
sg15
F3.375
sg16
I0
sg17
F3.1818181818181817
sg18
I0
sg19
F3.0
sg20
F3.4166666666666665
sg21
F3.5
ssI396
(dp416
g2
F2.6666666666666665
sg3
F3.409090909090909
sg4
F1.25
sg5
F3.8333333333333335
sg6
F0.5
sg7
I0
sg8
F3.642857142857143
sg9
F2.9166666666666665
sg10
F3.7
sg11
F3.5
sg12
F4.0625
sg13
I0
sg14
F4.0625
sg15
F1.9166666666666667
sg16
I0
sg17
F3.5833333333333335
sg18
I0
sg19
I0
sg20
F2.65
sg21
I0
ssI397
(dp417
g2
F4.0
sg3
F4.25
sg4
F4.0
sg5
F4.0
sg6
I0
sg7
F3.5
sg8
F3.7142857142857144
sg9
F4.666666666666667
sg10
I0
sg11
I0
sg12
I0
sg13
I0
sg14
F2.0
sg15
F4.25
sg16
I0
sg17
F3.8333333333333335
sg18
I0
sg19
F4.0
sg20
F4.0
sg21
I0
ssI398
(dp418
g2
F3.5
sg3
F4.333333333333333
sg4
F3.8125
sg5
F4.5
sg6
F3.5
sg7
I0
sg8
F3.3
sg9
F4.333333333333333
sg10
F4.6923076923076925
sg11
F5.0
sg12
F4.75
sg13
F3.0
sg14
F5.0
sg15
F3.9285714285714284
sg16
I0
sg17
F4.352941176470588
sg18
F4.833333333333333
sg19
I0
sg20
F3.2142857142857144
sg21
F4.0
ssI399
(dp419
g2
F2.5
sg3
F3.8846153846153846
sg4
F3.6363636363636362
sg5
F4.425
sg6
F4.5
sg7
I0
sg8
F3.5714285714285716
sg9
F3.5
sg10
F4.357142857142857
sg11
I0
sg12
F4.25
sg13
F2.5
sg14
F4.25
sg15
F3.6904761904761907
sg16
I0
sg17
F4.1
sg18
I0
sg19
F3.875
sg20
F3.6875
sg21
I0
ssI400
(dp420
g2
F4.7
sg3
F4.590909090909091
sg4
F4.285714285714286
sg5
F4.142857142857143
sg6
F4.75
sg7
I0
sg8
F4.777777777777778
sg9
F4.5
sg10
F4.3
sg11
I0
sg12
F4.5
sg13
F4.2
sg14
F4.5
sg15
F4.421052631578948
sg16
I0
sg17
F4.357142857142857
sg18
I0
sg19
F4.5
sg20
F4.6875
sg21
I0
ssI401
(dp421
g2
F3.5
sg3
F3.576923076923077
sg4
F3.772727272727273
sg5
F3.5638297872340425
sg6
F4.5
sg7
I0
sg8
F3.5
sg9
F3.59375
sg10
F3.5344827586206895
sg11
F3.5
sg12
F3.576923076923077
sg13
F3.576923076923077
sg14
F3.5851063829787235
sg15
F3.5625
sg16
I0
sg17
F3.488372093023256
sg18
I0
sg19
F3.5
sg20
F4.25
sg21
F3.5
ssI402
(dp422
g2
F3.0
sg3
F3.789473684210526
sg4
F4.0
sg5
F4.090909090909091
sg6
F5.0
sg7
I0
sg8
F4.0
sg9
F3.7777777777777777
sg10
F4.0
sg11
F3.6666666666666665
sg12
F4.0
sg13
F4.0
sg14
F4.0
sg15
F4.045454545454546
sg16
I0
sg17
F3.7058823529411766
sg18
I0
sg19
F4.0
sg20
F4.173913043478261
sg21
I0
ssI403
(dp423
g2
F3.8
sg3
F4.0
sg4
F3.3
sg5
F3.2142857142857144
sg6
F3.5
sg7
I0
sg8
F4.0
sg9
F3.5833333333333335
sg10
F3.5
sg11
I0
sg12
F3.0
sg13
F3.5
sg14
F3.0
sg15
F3.590909090909091
sg16
I0
sg17
F3.6363636363636362
sg18
I0
sg19
F3.75
sg20
F3.75
sg21
F4.0
ssI404
(dp424
g2
F3.0
sg3
F3.4
sg4
F3.2857142857142856
sg5
F3.4444444444444446
sg6
F3.3333333333333335
sg7
I0
sg8
F3.4444444444444446
sg9
F3.4210526315789473
sg10
F3.0
sg11
F3.5
sg12
F3.5
sg13
F3.0
sg14
F3.6666666666666665
sg15
F3.3157894736842106
sg16
I0
sg17
F3.4210526315789473
sg18
I0
sg19
F3.6666666666666665
sg20
F3.35
sg21
F3.25
ssI405
(dp425
g2
F4.203703703703703
sg3
F4.031645569620253
sg4
F3.9423076923076925
sg5
F3.892857142857143
sg6
F3.9583333333333335
sg7
F4.25
sg8
F4.054054054054054
sg9
F4.041666666666667
sg10
F3.9285714285714284
sg11
F3.0
sg12
F3.5
sg13
F4.5
sg14
I0
sg15
F4.0
sg16
I0
sg17
F3.8392857142857144
sg18
I0
sg19
F4.166666666666667
sg20
F4.154761904761905
sg21
F4.0
ssI406
(dp426
g2
F2.0
sg3
F3.4285714285714284
sg4
F3.5
sg5
F3.5
sg6
F2.8333333333333335
sg7
I0
sg8
I0
sg9
F3.8
sg10
F2.4166666666666665
sg11
F2.5
sg12
F2.6666666666666665
sg13
F4.0
sg14
F2.2
sg15
F3.125
sg16
I0
sg17
F3.75
sg18
I0
sg19
I0
sg20
F2.8333333333333335
sg21
I0
ssI407
(dp427
g2
F5.0
sg3
F4.1875
sg4
F4.071428571428571
sg5
F4.136363636363637
sg6
I0
sg7
I0
sg8
F4.083333333333333
sg9
F2.5
sg10
F4.6
sg11
I0
sg12
F3.1666666666666665
sg13
F4.5
sg14
F3.1666666666666665
sg15
F4.166666666666667
sg16
I0
sg17
F3.75
sg18
I0
sg19
F4.0
sg20
F4.0625
sg21
I0
ssI408
(dp428
g2
F4.066666666666666
sg3
F4.216216216216216
sg4
F3.9545454545454546
sg5
F4.132075471698113
sg6
F3.0
sg7
I0
sg8
F4.083333333333333
sg9
F4.388888888888889
sg10
F4.107142857142857
sg11
F3.8333333333333335
sg12
F5.0
sg13
F4.05
sg14
F3.6666666666666665
sg15
F4.0375
sg16
I0
sg17
F4.009803921568627
sg18
F3.5
sg19
F4.222222222222222
sg20
F4.109756097560975
sg21
F4.0
ssI409
(dp429
g2
F2.5
sg3
F3.8867924528301887
sg4
F4.166666666666667
sg5
F4.111111111111111
sg6
F3.3
sg7
I0
sg8
F4.25
sg9
F3.75
sg10
F4.285714285714286
sg11
F4.2
sg12
I0
sg13
I0
sg14
F4.5
sg15
F3.8333333333333335
sg16
I0
sg17
F3.792682926829268
sg18
F5.0
sg19
F4.0
sg20
F3.533333333333333
sg21
F5.0
ssI410
(dp430
g2
F4.4
sg3
F4.099009900990099
sg4
F3.5
sg5
F3.7
sg6
F4.0
sg7
F4.3
sg8
F3.9696969696969697
sg9
F3.8222222222222224
sg10
F3.8333333333333335
sg11
F4.75
sg12
F4.0
sg13
I0
sg14
F4.5
sg15
F3.25
sg16
I0
sg17
F3.935483870967742
sg18
F4.5
sg19
F4.428571428571429
sg20
F3.909090909090909
sg21
F4.5
ssI411
(dp431
g2
F3.2222222222222223
sg3
F3.365079365079365
sg4
F3.2
sg5
F3.6363636363636362
sg6
F3.5
sg7
I0
sg8
F3.3529411764705883
sg9
F2.8055555555555554
sg10
F3.2222222222222223
sg11
F3.25
sg12
F3.75
sg13
F4.5
sg14
F3.6
sg15
F3.310344827586207
sg16
I0
sg17
F3.0
sg18
F5.0
sg19
F4.166666666666667
sg20
F3.5277777777777777
sg21
F3.6666666666666665
ssI412
(dp432
g2
F4.1875
sg3
F4.0
sg4
F3.6666666666666665
sg5
F3.642857142857143
sg6
F3.1666666666666665
sg7
F4.8
sg8
F4.157894736842105
sg9
F4.1923076923076925
sg10
F3.375
sg11
F2.0
sg12
F2.5
sg13
F5.0
sg14
F2.111111111111111
sg15
F3.7142857142857144
sg16
I0
sg17
F3.759259259259259
sg18
F4.6
sg19
F4.0
sg20
F3.869565217391304
sg21
F5.0
ssI413
(dp433
g2
F5.0
sg3
F4.607142857142857
sg4
F2.5
sg5
F3.7
sg6
F5.0
sg7
I0
sg8
F4.925
sg9
F4.318181818181818
sg10
F4.25
sg11
I0
sg12
I0
sg13
F5.0
sg14
I0
sg15
F4.642857142857143
sg16
I0
sg17
F4.235294117647059
sg18
I0
sg19
F5.0
sg20
F4.75
sg21
F4.166666666666667
ssI414
(dp434
g2
F3.5733333333333333
sg3
F3.5614973262032086
sg4
F3.4024767801857587
sg5
F3.423413566739606
sg6
F3.0833333333333335
sg7
F3.857142857142857
sg8
F3.4759615384615383
sg9
F3.3762278978388998
sg10
F3.411504424778761
sg11
F3.4545454545454546
sg12
F3.786290322580645
sg13
F3.719298245614035
sg14
F3.4152542372881354
sg15
F3.281437125748503
sg16
F4.25
sg17
F3.2710843373493974
sg18
F3.6774193548387095
sg19
F3.8306451612903225
sg20
F3.2904
sg21
F3.576923076923077
ssI415
(dp435
g2
F4.230769230769231
sg3
F4.271739130434782
sg4
F4.0
sg5
F3.8666666666666667
sg6
F3.875
sg7
F4.2
sg8
F4.425925925925926
sg9
F3.9523809523809526
sg10
F3.5
sg11
F3.5
sg12
F4.0
sg13
F4.0
sg14
F4.0
sg15
F3.9
sg16
I0
sg17
F3.9193548387096775
sg18
F4.5
sg19
F4.5
sg20
F4.206896551724138
sg21
F4.333333333333333
ssI416
(dp436
g2
F2.75
sg3
F3.685185185185185
sg4
F2.4
sg5
F1.6
sg6
F3.25
sg7
F4.0
sg8
F3.5
sg9
F2.892857142857143
sg10
F2.7857142857142856
sg11
F0.5
sg12
F0.5
sg13
F0.5
sg14
F1.0
sg15
F2.3076923076923075
sg16
I0
sg17
F3.0
sg18
F4.0
sg19
F3.625
sg20
F2.727272727272727
sg21
F2.0
ssI417
(dp437
g2
F4.5
sg3
F4.583333333333333
sg4
F4.5
sg5
F4.333333333333333
sg6
F3.9
sg7
I0
sg8
F4.5
sg9
F4.5
sg10
F4.8125
sg11
I0
sg12
F4.0
sg13
F3.9166666666666665
sg14
F4.333333333333333
sg15
F4.34375
sg16
I0
sg17
F4.55
sg18
I0
sg19
F4.333333333333333
sg20
F4.6
sg21
I0
ssI418
(dp438
g2
F3.4615384615384617
sg3
F4.056603773584905
sg4
F3.375
sg5
F3.103448275862069
sg6
F3.0
sg7
F3.75
sg8
F3.3636363636363638
sg9
F3.75
sg10
F3.225
sg11
F4.25
sg12
F0.5
sg13
F3.1363636363636362
sg14
F1.6
sg15
F2.369565217391304
sg16
I0
sg17
F3.1785714285714284
sg18
F4.0
sg19
F4.25
sg20
F3.3214285714285716
sg21
F3.5
ssI419
(dp439
g2
F3.892857142857143
sg3
F3.9
sg4
F3.8076923076923075
sg5
F3.525
sg6
F3.8684210526315788
sg7
F2.5
sg8
F4.046875
sg9
F4.045454545454546
sg10
F2.7142857142857144
sg11
F2.1666666666666665
sg12
F2.8333333333333335
sg13
F4.333333333333333
sg14
F1.0
sg15
F3.80188679245283
sg16
I0
sg17
F3.703125
sg18
F4.3
sg19
F4.052631578947368
sg20
F3.8934426229508197
sg21
I0
ssI420
(dp440
g2
F3.9545454545454546
sg3
F3.975
sg4
F3.683333333333333
sg5
F3.8
sg6
F3.6666666666666665
sg7
F4.0
sg8
F4.071428571428571
sg9
F4.0
sg10
F3.8333333333333335
sg11
F4.136363636363637
sg12
F3.75
sg13
F3.9
sg14
F3.7
sg15
F3.6184210526315788
sg16
I0
sg17
F3.816666666666667
sg18
F3.642857142857143
sg19
F3.857142857142857
sg20
F3.764705882352941
sg21
I0
ssI421
(dp441
g2
F4.25
sg3
F4.425925925925926
sg4
F4.5
sg5
F3.5
sg6
F5.0
sg7
I0
sg8
F4.833333333333333
sg9
F4.5
sg10
F3.6666666666666665
sg11
I0
sg12
F3.0
sg13
I0
sg14
F3.5
sg15
F2.875
sg16
I0
sg17
F3.5
sg18
I0
sg19
F3.8333333333333335
sg20
F4.3
sg21
F3.75
ssI422
(dp442
g2
F3.2
sg3
F3.6923076923076925
sg4
F2.8461538461538463
sg5
F3.4
sg6
F2.75
sg7
F4.333333333333333
sg8
F3.4545454545454546
sg9
F3.4545454545454546
sg10
F3.4
sg11
F3.0
sg12
F4.0
sg13
I0
sg14
F3.2
sg15
F3.45
sg16
I0
sg17
F2.923076923076923
sg18
I0
sg19
F3.9
sg20
F3.0
sg21
F3.8333333333333335
ssI423
(dp443
g2
F3.5
sg3
F4.15
sg4
F3.642857142857143
sg5
F3.2
sg6
F1.5
sg7
I0
sg8
F4.3
sg9
F4.25
sg10
F3.5
sg11
I0
sg12
I0
sg13
F5.0
sg14
I0
sg15
F3.1363636363636362
sg16
I0
sg17
F4.0
sg18
I0
sg19
F3.3333333333333335
sg20
F3.5555555555555554
sg21
F4.0
ssI424
(dp444
g2
F3.8205128205128207
sg3
F3.7432432432432434
sg4
F2.9545454545454546
sg5
F2.875
sg6
F3.9444444444444446
sg7
F3.625
sg8
F3.755813953488372
sg9
F3.5357142857142856
sg10
F4.0
sg11
F4.5
sg12
F4.5
sg13
F3.5
sg14
F4.0
sg15
F3.55
sg16
I0
sg17
F3.511627906976744
sg18
I0
sg19
F4.25
sg20
F3.8076923076923075
sg21
F4.5
ssI425
(dp445
g2
F3.75
sg3
F3.661417322834646
sg4
F3.3615384615384616
sg5
F3.4261363636363638
sg6
F3.6333333333333333
sg7
F3.5
sg8
F3.7153846153846155
sg9
F3.4375
sg10
F3.4827586206896552
sg11
F3.0625
sg12
F3.3333333333333335
sg13
F3.5
sg14
F3.2916666666666665
sg15
F3.4722222222222223
sg16
I0
sg17
F3.3636363636363638
sg18
I0
sg19
F3.8125
sg20
F3.5707964601769913
sg21
F3.5
ssI426
(dp446
g2
F3.0
sg3
F3.6153846153846154
sg4
F3.8333333333333335
sg5
F4.032258064516129
sg6
I0
sg7
I0
sg8
F3.090909090909091
sg9
F3.888888888888889
sg10
F3.9545454545454546
sg11
F4.071428571428571
sg12
F3.9722222222222223
sg13
F4.318181818181818
sg14
F4.15
sg15
F3.5357142857142856
sg16
I0
sg17
F3.7560975609756095
sg18
I0
sg19
F5.0
sg20
F2.611111111111111
sg21
I0
ssI427
(dp447
g2
F3.75
sg3
F3.261904761904762
sg4
F2.8846153846153846
sg5
F3.1153846153846154
sg6
F1.9166666666666667
sg7
I0
sg8
F3.5714285714285716
sg9
F3.125
sg10
F3.2777777777777777
sg11
F0.8333333333333334
sg12
F2.0
sg13
F3.5
sg14
F2.0
sg15
F3.0925925925925926
sg16
I0
sg17
F2.85
sg18
F3.75
sg19
F3.4375
sg20
F3.2586206896551726
sg21
F4.0
ssI428
(dp448
g2
F3.1333333333333333
sg3
F2.93125
sg4
F2.7023809523809526
sg5
F2.3763440860215055
sg6
F2.8333333333333335
sg7
F4.0
sg8
F2.8076923076923075
sg9
F2.6805555555555554
sg10
F2.730769230769231
sg11
F2.9444444444444446
sg12
F2.62
sg13
F2.9
sg14
F1.875
sg15
F2.66793893129771
sg16
I0
sg17
F2.3934426229508197
sg18
F4.25
sg19
F3.1785714285714284
sg20
F2.8641975308641974
sg21
F2.25
ssI429
(dp449
g2
F3.6666666666666665
sg3
F4.137931034482759
sg4
F3.6
sg5
F3.9166666666666665
sg6
F4.0
sg7
F3.0
sg8
F3.7142857142857144
sg9
F4.2272727272727275
sg10
F4.666666666666667
sg11
F4.666666666666667
sg12
F4.666666666666667
sg13
F5.0
sg14
F4.0
sg15
F3.8823529411764706
sg16
I0
sg17
F3.9047619047619047
sg18
I0
sg19
F4.333333333333333
sg20
F4.0
sg21
F3.75
ssI430
(dp450
g2
F4.642857142857143
sg3
F3.9827586206896552
sg4
F3.5555555555555554
sg5
F3.380952380952381
sg6
F4.0
sg7
I0
sg8
F4.5
sg9
F3.6153846153846154
sg10
F3.05
sg11
I0
sg12
F3.1
sg13
F4.5
sg14
F3.15
sg15
F4.0
sg16
I0
sg17
F3.5952380952380953
sg18
I0
sg19
F3.0
sg20
F4.5
sg21
I0
ssI431
(dp451
g2
F3.5
sg3
F2.9
sg4
F1.6666666666666667
sg5
F2.3
sg6
I0
sg7
I0
sg8
F4.5
sg9
F2.4375
sg10
F3.25
sg11
I0
sg12
I0
sg13
I0
sg14
F1.0
sg15
F2.625
sg16
I0
sg17
F2.5416666666666665
sg18
I0
sg19
F3.25
sg20
F3.5
sg21
F3.0
ssI432
(dp452
g2
F3.736111111111111
sg3
F3.8184931506849313
sg4
F3.574468085106383
sg5
F3.5483870967741935
sg6
F3.9285714285714284
sg7
F3.5
sg8
F3.492063492063492
sg9
F3.788135593220339
sg10
F3.642857142857143
sg11
F4.5
sg12
F3.7333333333333334
sg13
F3.9705882352941178
sg14
F3.5789473684210527
sg15
F3.506172839506173
sg16
I0
sg17
F3.24468085106383
sg18
I0
sg19
F3.8529411764705883
sg20
F3.5416666666666665
sg21
F4.5
ssI433
(dp453
g2
F3.6
sg3
F3.4642857142857144
sg4
F4.0
sg5
F4.0
sg6
F4.0
sg7
I0
sg8
F4.153846153846154
sg9
F5.0
sg10
I0
sg11
I0
sg12
I0
sg13
F3.75
sg14
I0
sg15
F3.1875
sg16
I0
sg17
F4.625
sg18
I0
sg19
F2.3333333333333335
sg20
F3.6666666666666665
sg21
F2.0
ssI434
(dp454
g2
F4.147058823529412
sg3
F4.026315789473684
sg4
F3.658333333333333
sg5
F3.6493506493506493
sg6
F3.526315789473684
sg7
I0
sg8
F4.107843137254902
sg9
F3.5
sg10
F3.693548387096774
sg11
F3.8
sg12
F4.0476190476190474
sg13
F3.423076923076923
sg14
F3.5
sg15
F3.6914893617021276
sg16
I0
sg17
F3.65
sg18
F4.0
sg19
F4.066666666666666
sg20
F3.710526315789474
sg21
F3.25
ssI435
(dp455
g2
F4.416666666666667
sg3
F4.568181818181818
sg4
F4.0625
sg5
F4.055555555555555
sg6
I0
sg7
I0
sg8
F4.714285714285714
sg9
F4.125
sg10
F4.0
sg11
F4.0
sg12
F4.0
sg13
F4.4
sg14
F4.0
sg15
F4.235294117647059
sg16
I0
sg17
F4.111111111111111
sg18
I0
sg19
I0
sg20
F4.533333333333333
sg21
F3.75
ssI436
(dp456
g2
F3.5
sg3
F3.4473684210526314
sg4
F2.7142857142857144
sg5
F3.1739130434782608
sg6
F3.0
sg7
I0
sg8
F2.909090909090909
sg9
F3.2777777777777777
sg10
F3.4285714285714284
sg11
F3.7142857142857144
sg12
F3.8
sg13
F3.6666666666666665
sg14
F3.4642857142857144
sg15
F2.923076923076923
sg16
I0
sg17
F2.982456140350877
sg18
I0
sg19
F3.75
sg20
F3.2
sg21
F3.0
ssI437
(dp457
g2
F3.75
sg3
F3.880952380952381
sg4
F3.6666666666666665
sg5
F3.55
sg6
I0
sg7
I0
sg8
F3.92
sg9
F3.6785714285714284
sg10
F3.75
sg11
I0
sg12
I0
sg13
F4.0
sg14
F3.0
sg15
F3.413793103448276
sg16
I0
sg17
F3.7837837837837838
sg18
F5.0
sg19
F4.461538461538462
sg20
F3.310344827586207
sg21
F5.0
ssI438
(dp458
g2
F3.3793103448275863
sg3
F3.420814479638009
sg4
F3.243478260869565
sg5
F3.409937888198758
sg6
F3.125
sg7
F4.5
sg8
F3.4107142857142856
sg9
F3.25
sg10
F3.338235294117647
sg11
F3.4523809523809526
sg12
F3.710526315789474
sg13
F3.966666666666667
sg14
F3.6052631578947367
sg15
F3.4027777777777777
sg16
I0
sg17
F3.300751879699248
sg18
F3.8333333333333335
sg19
F3.5
sg20
F3.432065217391304
sg21
F3.5
ssI439
(dp459
g2
I0
sg3
F4.5
sg4
F3.625
sg5
F4.111111111111111
sg6
I0
sg7
I0
sg8
F4.75
sg9
F3.5
sg10
F4.3
sg11
I0
sg12
F4.0
sg13
F3.75
sg14
F4.0
sg15
F3.909090909090909
sg16
I0
sg17
F4.25
sg18
F4.0
sg19
F4.25
sg20
F3.875
sg21
I0
ssI440
(dp460
g2
F4.0
sg3
F3.8421052631578947
sg4
F4.138888888888889
sg5
F4.071428571428571
sg6
F3.875
sg7
F4.5
sg8
F3.0
sg9
F4.125
sg10
F4.166666666666667
sg11
I0
sg12
F3.5
sg13
I0
sg14
F4.0
sg15
F3.9
sg16
I0
sg17
F3.75
sg18
I0
sg19
F4.0
sg20
F3.9444444444444446
sg21
F3.5
ssI441
(dp461
g2
F4.625
sg3
F4.166666666666667
sg4
F4.541666666666667
sg5
F4.605263157894737
sg6
F4.5
sg7
I0
sg8
F4.611111111111111
sg9
F4.25
sg10
F4.5
sg11
I0
sg12
F4.75
sg13
F4.5
sg14
F4.5
sg15
F4.68
sg16
I0
sg17
F4.675
sg18
I0
sg19
F2.5
sg20
F4.6
sg21
I0
ssI442
(dp462
g2
F0.5
sg3
F1.0769230769230769
sg4
F1.0
sg5
F1.8333333333333333
sg6
F0.6666666666666666
sg7
I0
sg8
F0.5
sg9
F1.9
sg10
I0
sg11
I0
sg12
F1.25
sg13
I0
sg14
F2.0
sg15
F0.6666666666666666
sg16
I0
sg17
F1.9
sg18
I0
sg19
F0.5
sg20
F0.6
sg21
I0
ssI443
(dp463
g2
F2.875
sg3
F4.166666666666667
sg4
F3.7916666666666665
sg5
F4.423076923076923
sg6
F3.4
sg7
I0
sg8
F3.8333333333333335
sg9
F4.285714285714286
sg10
F4.5
sg11
I0
sg12
F4.0
sg13
F3.5
sg14
F4.0
sg15
F3.7142857142857144
sg16
I0
sg17
F4.714285714285714
sg18
I0
sg19
F4.75
sg20
F3.9166666666666665
sg21
I0
ssI444
(dp464
g2
F4.0
sg3
F4.05
sg4
F3.2
sg5
F2.75
sg6
F4.5
sg7
I0
sg8
F4.0588235294117645
sg9
F4.125
sg10
F4.2
sg11
F4.0
sg12
F4.0
sg13
F4.0
sg14
F3.6666666666666665
sg15
F3.5
sg16
I0
sg17
F3.8461538461538463
sg18
I0
sg19
F4.25
sg20
F3.8823529411764706
sg21
F3.0
ssI445
(dp465
g2
F4.428571428571429
sg3
F3.8372093023255816
sg4
F3.875
sg5
F3.65
sg6
F3.6666666666666665
sg7
I0
sg8
F3.6176470588235294
sg9
F3.9642857142857144
sg10
F3.9583333333333335
sg11
F3.0
sg12
F3.5
sg13
F3.3
sg14
F3.2
sg15
F3.75
sg16
I0
sg17
F4.204545454545454
sg18
I0
sg19
F3.8
sg20
F3.8
sg21
F3.5
ssI446
(dp466
g2
F3.6666666666666665
sg3
F3.3142857142857145
sg4
F3.076923076923077
sg5
F2.9047619047619047
sg6
F3.0
sg7
I0
sg8
F3.25
sg9
F3.2083333333333335
sg10
F3.375
sg11
F3.4
sg12
F3.4
sg13
F3.3333333333333335
sg14
F3.5
sg15
F3.0
sg16
I0
sg17
F3.0
sg18
I0
sg19
F3.5
sg20
F3.259259259259259
sg21
F3.0
ssI447
(dp467
g2
F3.25
sg3
F3.9696969696969697
sg4
F3.5
sg5
F4.055555555555555
sg6
F3.75
sg7
I0
sg8
F4.066666666666666
sg9
F3.9375
sg10
F4.375
sg11
F4.0
sg12
F4.0
sg13
F4.0
sg14
F3.909090909090909
sg15
F3.909090909090909
sg16
I0
sg17
F3.6296296296296298
sg18
I0
sg19
F4.5
sg20
F3.935483870967742
sg21
F4.5
ssI448
(dp468
g2
F2.8737373737373737
sg3
F2.988352745424293
sg4
F2.6237458193979935
sg5
F2.951338199513382
sg6
F2.125
sg7
F3.6666666666666665
sg8
F2.941747572815534
sg9
F2.7857142857142856
sg10
F2.801242236024845
sg11
F3.3620689655172415
sg12
F3.3461538461538463
sg13
F2.634831460674157
sg14
F3.096296296296296
sg15
F2.727491961414791
sg16
F1.25
sg17
F2.9091869060190074
sg18
F3.9210526315789473
sg19
F3.1826923076923075
sg20
F2.7600896860986546
sg21
F3.5
ssI449
(dp469
g2
F3.8
sg3
F3.78125
sg4
F2.5
sg5
F2.7142857142857144
sg6
F2.5
sg7
I0
sg8
F3.7916666666666665
sg9
F2.5
sg10
F2.1666666666666665
sg11
I0
sg12
I0
sg13
I0
sg14
F2.0
sg15
F3.05
sg16
I0
sg17
F2.764705882352941
sg18
F4.5
sg19
F3.5
sg20
F3.5454545454545454
sg21
F2.5
ssI450
(dp470
g2
F4.0
sg3
F4.153846153846154
sg4
F4.125
sg5
F4.125
sg6
F3.4285714285714284
sg7
I0
sg8
F4.2
sg9
F4.0
sg10
F4.0
sg11
F4.0
sg12
F4.0
sg13
I0
sg14
F4.0
sg15
F4.235294117647059
sg16
I0
sg17
F3.7857142857142856
sg18
I0
sg19
F4.666666666666667
sg20
F4.0
sg21
F4.0
ssI451
(dp471
g2
F4.5
sg3
F4.1
sg4
F3.2
sg5
F3.7
sg6
F5.0
sg7
I0
sg8
F4.4
sg9
F3.7
sg10
F3.5
sg11
F4.0
sg12
F4.5
sg13
I0
sg14
F4.333333333333333
sg15
F3.4166666666666665
sg16
I0
sg17
F3.8461538461538463
sg18
I0
sg19
I0
sg20
F3.7058823529411766
sg21
I0
ssI452
(dp472
g2
F4.7272727272727275
sg3
F4.574074074074074
sg4
F4.420634920634921
sg5
F4.395522388059701
sg6
F4.565217391304348
sg7
F5.0
sg8
F4.641025641025641
sg9
F4.476190476190476
sg10
F4.461538461538462
sg11
F4.666666666666667
sg12
F4.666666666666667
sg13
I0
sg14
F4.666666666666667
sg15
F4.509009009009009
sg16
I0
sg17
F4.745762711864407
sg18
I0
sg19
F5.0
sg20
F4.535714285714286
sg21
F4.0
ssI453
(dp473
g2
F3.4074074074074074
sg3
F3.864406779661017
sg4
F4.054054054054054
sg5
F3.913793103448276
sg6
F3.2142857142857144
sg7
F4.0
sg8
F3.9836065573770494
sg9
F4.031746031746032
sg10
F4.052631578947368
sg11
F4.666666666666667
sg12
F4.909090909090909
sg13
F4.5
sg14
F4.7272727272727275
sg15
F3.847826086956522
sg16
I0
sg17
F4.1265822784810124
sg18
F4.0
sg19
F4.0
sg20
F3.717391304347826
sg21
F4.666666666666667
ssI454
(dp474
g2
F3.8214285714285716
sg3
F3.76
sg4
F3.75
sg5
F3.5
sg6
F3.75
sg7
F4.0
sg8
F3.8181818181818183
sg9
F4.0
sg10
F3.125
sg11
I0
sg12
F3.25
sg13
I0
sg14
I0
sg15
F3.8
sg16
I0
sg17
F3.8333333333333335
sg18
I0
sg19
F3.0
sg20
F3.7954545454545454
sg21
I0
ssI455
(dp475
g2
F3.5
sg3
F3.7096774193548385
sg4
F2.8333333333333335
sg5
F3.1
sg6
F4.0
sg7
I0
sg8
F3.3636363636363638
sg9
F3.7333333333333334
sg10
F3.4
sg11
F3.0
sg12
F3.0
sg13
F3.0
sg14
F3.2
sg15
F3.125
sg16
I0
sg17
F3.4210526315789473
sg18
I0
sg19
F4.166666666666667
sg20
F3.380952380952381
sg21
F3.6666666666666665
ssI456
(dp476
g2
F4.0
sg3
F3.923076923076923
sg4
F4.0
sg5
F4.4
sg6
F4.5
sg7
I0
sg8
F4.25
sg9
F3.7
sg10
F3.8333333333333335
sg11
F3.5
sg12
F4.333333333333333
sg13
I0
sg14
F4.0
sg15
F4.1
sg16
I0
sg17
F3.526315789473684
sg18
I0
sg19
I0
sg20
F4.153846153846154
sg21
I0
ssI457
(dp477
g2
F3.0
sg3
F3.727272727272727
sg4
F3.0
sg5
F3.8
sg6
F2.6666666666666665
sg7
I0
sg8
F4.25
sg9
F4.0
sg10
F4.666666666666667
sg11
F4.0
sg12
F3.5
sg13
I0
sg14
F3.0
sg15
F3.5652173913043477
sg16
I0
sg17
F3.533333333333333
sg18
I0
sg19
F5.0
sg20
F3.3333333333333335
sg21
F1.0
ssI458
(dp478
g2
F4.0
sg3
F4.321428571428571
sg4
F4.0
sg5
F4.066666666666666
sg6
I0
sg7
I0
sg8
F4.25
sg9
F4.190476190476191
sg10
F3.8
sg11
F3.8
sg12
F4.25
sg13
F5.0
sg14
F4.0
sg15
F4.2
sg16
I0
sg17
F3.869565217391304
sg18
I0
sg19
F4.75
sg20
F4.571428571428571
sg21
F3.0
ssI459
(dp479
g2
F4.666666666666667
sg3
F4.611111111111111
sg4
F4.1
sg5
F4.366666666666666
sg6
I0
sg7
I0
sg8
F4.5
sg9
F5.0
sg10
F4.5
sg11
I0
sg12
F4.5
sg13
F4.0
sg14
F4.428571428571429
sg15
F4.269230769230769
sg16
I0
sg17
F4.3
sg18
I0
sg19
F4.5
sg20
F4.4
sg21
F5.0
ssI460
(dp480
g2
F4.363636363636363
sg3
F4.285714285714286
sg4
F4.2
sg5
F4.224137931034483
sg6
F4.0
sg7
I0
sg8
F4.285714285714286
sg9
F4.321428571428571
sg10
F4.366666666666666
sg11
F4.5
sg12
F4.208333333333333
sg13
F4.214285714285714
sg14
F3.9285714285714284
sg15
F4.269230769230769
sg16
I0
sg17
F4.065217391304348
sg18
I0
sg19
F4.666666666666667
sg20
F4.130434782608695
sg21
I0
ssI461
(dp481
g2
F4.0
sg3
F3.6052631578947367
sg4
F0.5
sg5
F1.2
sg6
F4.0
sg7
I0
sg8
F3.6666666666666665
sg9
F4.25
sg10
F4.0
sg11
I0
sg12
I0
sg13
F0.5
sg14
I0
sg15
F0.9444444444444444
sg16
I0
sg17
F4.416666666666667
sg18
I0
sg19
F3.0
sg20
F1.8125
sg21
F4.5
ssI462
(dp482
g2
F3.230769230769231
sg3
F3.3818565400843883
sg4
F2.85
sg5
F2.7982456140350878
sg6
F3.38
sg7
F3.75
sg8
F3.588235294117647
sg9
F2.8684210526315788
sg10
F3.0606060606060606
sg11
F3.4583333333333335
sg12
F2.875
sg13
F2.5
sg14
F2.388888888888889
sg15
F2.8421052631578947
sg16
I0
sg17
F3.203448275862069
sg18
F4.007246376811594
sg19
F3.7333333333333334
sg20
F3.2294117647058824
sg21
F3.9285714285714284
ssI463
(dp483
g2
F3.0
sg3
F3.9411764705882355
sg4
F3.875
sg5
F4.0
sg6
F3.6666666666666665
sg7
I0
sg8
F4.0
sg9
F3.5
sg10
F4.5
sg11
F3.5
sg12
F3.5
sg13
F4.0
sg14
F3.5
sg15
F3.8055555555555554
sg16
I0
sg17
F3.388888888888889
sg18
F3.5
sg19
F3.8333333333333335
sg20
F3.7857142857142856
sg21
I0
ssI464
(dp484
g2
F4.384615384615385
sg3
F4.2368421052631575
sg4
F3.5
sg5
F3.4693877551020407
sg6
F3.6666666666666665
sg7
F5.0
sg8
F4.225806451612903
sg9
F3.642857142857143
sg10
F3.1153846153846154
sg11
F2.75
sg12
F2.375
sg13
F3.642857142857143
sg14
F2.875
sg15
F3.573529411764706
sg16
I0
sg17
F3.1166666666666667
sg18
I0
sg19
F4.153846153846154
sg20
F3.675
sg21
F4.375
ssI465
(dp485
g2
F4.2272727272727275
sg3
F4.214285714285714
sg4
F3.7916666666666665
sg5
F3.782608695652174
sg6
F4.5
sg7
F4.5
sg8
F4.264705882352941
sg9
F4.352941176470588
sg10
F4.0
sg11
F4.0
sg12
F4.0
sg13
I0
sg14
F4.0
sg15
F3.840909090909091
sg16
I0
sg17
F4.466666666666667
sg18
I0
sg19
F4.545454545454546
sg20
F4.059701492537314
sg21
F4.25
ssI466
(dp486
g2
F4.15
sg3
F4.064102564102564
sg4
F3.7777777777777777
sg5
F3.881818181818182
sg6
F4.25
sg7
I0
sg8
F3.7142857142857144
sg9
F3.857142857142857
sg10
F4.043478260869565
sg11
F3.5
sg12
F4.035714285714286
sg13
F4.0
sg14
F3.911764705882353
sg15
F3.7916666666666665
sg16
I0
sg17
F3.8484848484848486
sg18
I0
sg19
F4.1
sg20
F3.9324324324324325
sg21
I0
ssI467
(dp487
g2
I0
sg3
F3.8666666666666667
sg4
F1.5
sg5
F2.0
sg6
F1.0
sg7
I0
sg8
F1.0
sg9
F3.6666666666666665
sg10
I0
sg11
F2.0
sg12
F2.0
sg13
I0
sg14
F2.0
sg15
F2.7142857142857144
sg16
I0
sg17
F3.6
sg18
I0
sg19
F4.0
sg20
F2.0
sg21
F3.0
ssI468
(dp488
g2
F3.6666666666666665
sg3
F3.5714285714285716
sg4
F3.25
sg5
F3.272727272727273
sg6
F4.0
sg7
I0
sg8
F2.7777777777777777
sg9
F4.5
sg10
F3.75
sg11
F4.0
sg12
F4.0
sg13
F5.0
sg14
F3.75
sg15
F3.0
sg16
I0
sg17
F3.1818181818181817
sg18
I0
sg19
F3.3333333333333335
sg20
F3.2142857142857144
sg21
F3.6666666666666665
ssI469
(dp489
g2
F3.951219512195122
sg3
F3.9361702127659575
sg4
F3.311926605504587
sg5
F3.385321100917431
sg6
F3.5
sg7
F4.3076923076923075
sg8
F4.0
sg9
F3.6527777777777777
sg10
F3.810810810810811
sg11
F3.6923076923076925
sg12
F3.4444444444444446
sg13
I0
sg14
F3.7058823529411766
sg15
F3.2432432432432434
sg16
I0
sg17
F3.642857142857143
sg18
F1.0
sg19
F4.115384615384615
sg20
F3.529850746268657
sg21
F4.090909090909091
ssI470
(dp490
g2
F3.0
sg3
F3.676470588235294
sg4
F3.875
sg5
F3.5238095238095237
sg6
F3.0
sg7
I0
sg8
F3.2941176470588234
sg9
F3.823529411764706
sg10
F3.6666666666666665
sg11
F3.5
sg12
F3.5
sg13
F3.3333333333333335
sg14
F3.625
sg15
F3.6153846153846154
sg16
I0
sg17
F3.5714285714285716
sg18
I0
sg19
F4.166666666666667
sg20
F3.433333333333333
sg21
F4.0
ssI471
(dp491
g2
F4.0
sg3
F4.041666666666667
sg4
F3.5714285714285716
sg5
F3.6363636363636362
sg6
F3.5
sg7
I0
sg8
F4.0
sg9
F3.9285714285714284
sg10
F4.333333333333333
sg11
F3.5
sg12
F3.9285714285714284
sg13
F3.625
sg14
F3.9285714285714284
sg15
F3.7083333333333335
sg16
I0
sg17
F3.9642857142857144
sg18
I0
sg19
F3.9
sg20
F3.5625
sg21
I0
ssI472
(dp492
g2
F3.3333333333333335
sg3
F4.4
sg4
F3.8333333333333335
sg5
F4.4
sg6
F3.0
sg7
I0
sg8
F4.875
sg9
F3.5
sg10
F3.7
sg11
I0
sg12
I0
sg13
F5.0
sg14
I0
sg15
F4.75
sg16
I0
sg17
F3.8333333333333335
sg18
I0
sg19
I0
sg20
F3.8333333333333335
sg21
I0
ssI473
(dp493
g2
F4.0
sg3
F3.8863636363636362
sg4
F3.6
sg5
F3.5
sg6
F3.0
sg7
I0
sg8
F4.375
sg9
F3.4444444444444446
sg10
F3.25
sg11
I0
sg12
F4.0
sg13
I0
sg14
F2.5
sg15
F3.375
sg16
I0
sg17
F3.026315789473684
sg18
F3.5
sg19
I0
sg20
F3.6875
sg21
I0
ssI474
(dp494
g2
F3.4829931972789114
sg3
F3.549872122762148
sg4
F3.4205298013245033
sg5
F3.403409090909091
sg6
F3.1019417475728157
sg7
F3.7395833333333335
sg8
F3.48559670781893
sg9
F3.4784313725490197
sg10
F3.285211267605634
sg11
F3.3955223880597014
sg12
F3.4875
sg13
F3.9411764705882355
sg14
F3.2713178294573644
sg15
F3.225663716814159
sg16
I0
sg17
F3.1820546163849155
sg18
F3.693548387096774
sg19
F3.4646017699115044
sg20
F3.474212034383954
sg21
F3.2708333333333335
ssI475
(dp495
g2
F4.875
sg3
F4.571428571428571
sg4
F4.379746835443038
sg5
F4.450980392156863
sg6
F4.5
sg7
I0
sg8
F4.291666666666667
sg9
F4.45
sg10
F4.618421052631579
sg11
F4.666666666666667
sg12
F4.145833333333333
sg13
F4.305555555555555
sg14
F4.25
sg15
F4.40625
sg16
I0
sg17
F4.333333333333333
sg18
I0
sg19
F4.25
sg20
F4.3875
sg21
F5.0
ssI476
(dp496
g2
F3.6666666666666665
sg3
F3.727272727272727
sg4
F4.0
sg5
F3.7058823529411766
sg6
I0
sg7
I0
sg8
F3.4285714285714284
sg9
F3.5652173913043477
sg10
F4.125
sg11
F4.5
sg12
F4.0
sg13
F4.333333333333333
sg14
F3.9473684210526314
sg15
F3.4285714285714284
sg16
I0
sg17
F3.3703703703703702
sg18
I0
sg19
F4.333333333333333
sg20
F3.526315789473684
sg21
F4.0
ssI477
(dp497
g2
F3.9903846153846154
sg3
F3.9513274336283186
sg4
F3.842541436464088
sg5
F3.7303030303030305
sg6
F3.5434782608695654
sg7
F4.25
sg8
F3.983050847457627
sg9
F3.711267605633803
sg10
F3.605769230769231
sg11
F3.35
sg12
F3.9125
sg13
F4.02
sg14
F3.3176470588235296
sg15
F3.7094972067039107
sg16
I0
sg17
F3.595330739299611
sg18
F4.25
sg19
F4.421052631578948
sg20
F3.7265625
sg21
F3.5625
ssI478
(dp498
g2
F3.5
sg3
F2.6875
sg4
F2.8
sg5
F3.0
sg6
F0.5
sg7
I0
sg8
F3.5
sg9
F2.5
sg10
F3.25
sg11
F3.75
sg12
F3.0
sg13
F4.5
sg14
F3.25
sg15
F3.125
sg16
I0
sg17
F2.8125
sg18
I0
sg19
F1.5
sg20
F2.2
sg21
F2.5
ssI479
(dp499
g2
F2.75
sg3
F3.7464788732394365
sg4
F2.56
sg5
F3.0
sg6
F2.7142857142857144
sg7
I0
sg8
F3.2666666666666666
sg9
F3.4680851063829787
sg10
F3.1666666666666665
sg11
F3.923076923076923
sg12
F3.3333333333333335
sg13
F1.0
sg14
F3.0416666666666665
sg15
F2.56
sg16
I0
sg17
F3.42
sg18
F3.0
sg19
F3.2
sg20
F3.0
sg21
F3.0
ssI480
(dp500
g2
F3.4836065573770494
sg3
F3.595108695652174
sg4
F3.0575221238938055
sg5
F3.2283236994219653
sg6
F2.6857142857142855
sg7
F3.7
sg8
F3.397810218978102
sg9
F3.2842465753424657
sg10
F3.3469387755102042
sg11
F3.4444444444444446
sg12
F3.1538461538461537
sg13
F3.53125
sg14
F3.330188679245283
sg15
F3.042372881355932
sg16
I0
sg17
F3.0803814713896456
sg18
F3.3214285714285716
sg19
F3.75
sg20
F3.126237623762376
sg21
F2.9375
ssI481
(dp501
g2
F3.0
sg3
F3.0
sg4
F2.8
sg5
F2.6666666666666665
sg6
F2.0
sg7
F5.0
sg8
F3.1666666666666665
sg9
F3.5
sg10
I0
sg11
I0
sg12
I0
sg13
I0
sg14
F2.0
sg15
F2.7777777777777777
sg16
I0
sg17
F2.1666666666666665
sg18
I0
sg19
F4.0
sg20
F2.8333333333333335
sg21
I0
ssI482
(dp502
g2
F3.0555555555555554
sg3
F3.0306122448979593
sg4
F4.0
sg5
F3.9342105263157894
sg6
F3.6666666666666665
sg7
I0
sg8
F3.576923076923077
sg9
F3.25
sg10
F3.411764705882353
sg11
F4.0
sg12
F2.9
sg13
F4.3
sg14
F3.7777777777777777
sg15
F3.807017543859649
sg16
I0
sg17
F3.1636363636363636
sg18
I0
sg19
F1.8333333333333333
sg20
F3.7837837837837838
sg21
F3.0
ssI483
(dp503
g2
F3.745614035087719
sg3
F3.835249042145594
sg4
F3.456953642384106
sg5
F3.640096618357488
sg6
F2.8297872340425534
sg7
F4.333333333333333
sg8
F3.8383838383838382
sg9
F3.649390243902439
sg10
F3.8152173913043477
sg11
F3.4791666666666665
sg12
F3.828125
sg13
F3.7738095238095237
sg14
F3.5
sg15
F3.488986784140969
sg16
I0
sg17
F3.61094674556213
sg18
F3.7
sg19
F3.75
sg20
F3.4766666666666666
sg21
F3.75
ssI484
(dp504
g2
F3.5
sg3
F3.7954545454545454
sg4
F3.4318181818181817
sg5
F3.806451612903226
sg6
F2.8958333333333335
sg7
F3.25
sg8
F3.967391304347826
sg9
F3.778688524590164
sg10
F3.9696969696969697
sg11
F4.7
sg12
F4.642857142857143
sg13
F4.0
sg14
F4.3604651162790695
sg15
F3.697674418604651
sg16
I0
sg17
F3.9050632911392404
sg18
F4.5
sg19
F4.125
sg20
F3.2589285714285716
sg21
I0
ssI485
(dp505
g2
I0
sg3
F4.1
sg4
F3.25
sg5
F3.6
sg6
F3.0
sg7
I0
sg8
F4.6
sg9
F4.666666666666667
sg10
I0
sg11
F4.0
sg12
F4.0
sg13
F5.0
sg14
F4.0
sg15
F3.909090909090909
sg16
I0
sg17
F3.8
sg18
I0
sg19
F4.333333333333333
sg20
F4.545454545454546
sg21
F5.0
ssI486
(dp506
g2
F3.6
sg3
F4.571428571428571
sg4
F3.8461538461538463
sg5
F4.0
sg6
F3.5
sg7
I0
sg8
F4.0
sg9
F4.142857142857143
sg10
F3.5
sg11
F3.0
sg12
F3.0
sg13
F5.0
sg14
F3.0
sg15
F3.9473684210526314
sg16
I0
sg17
F3.6666666666666665
sg18
I0
sg19
F5.0
sg20
F4.1
sg21
F4.5
ssI487
(dp507
g2
F3.0833333333333335
sg3
F3.4130434782608696
sg4
F3.5
sg5
F3.4705882352941178
sg6
F3.375
sg7
I0
sg8
F3.0
sg9
F3.2
sg10
F3.7222222222222223
sg11
I0
sg12
F3.4285714285714284
sg13
F3.25
sg14
F3.4166666666666665
sg15
F3.28125
sg16
I0
sg17
F2.760869565217391
sg18
I0
sg19
F4.333333333333333
sg20
F3.1666666666666665
sg21
I0
ssI488
(dp508
g2
F3.5
sg3
F3.712962962962963
sg4
F3.75
sg5
F4.369565217391305
sg6
F4.166666666666667
sg7
F3.25
sg8
F4.136363636363637
sg9
F3.890625
sg10
F4.125
sg11
F3.8333333333333335
sg12
F4.233333333333333
sg13
F4.375
sg14
F4.088235294117647
sg15
F3.5
sg16
I0
sg17
F3.93859649122807
sg18
F4.25
sg19
F4.1
sg20
F3.9285714285714284
sg21
F4.0
ssI489
(dp509
g2
F3.0306122448979593
sg3
F3.2611940298507465
sg4
F2.888888888888889
sg5
F2.977124183006536
sg6
F2.8771929824561404
sg7
F3.1666666666666665
sg8
F3.0517241379310347
sg9
F3.073298429319372
sg10
F3.0572916666666665
sg11
F3.735294117647059
sg12
F3.5
sg13
F3.1666666666666665
sg14
F3.1020408163265305
sg15
F2.7698412698412698
sg16
I0
sg17
F2.8607142857142858
sg18
F4.0
sg19
F3.36
sg20
F2.8125
sg21
F2.95
ssI490
(dp510
g2
F3.642857142857143
sg3
F3.587719298245614
sg4
F3.2142857142857144
sg5
F2.85
sg6
F2.6666666666666665
sg7
I0
sg8
F3.4375
sg9
F3.0
sg10
F2.8863636363636362
sg11
F3.0
sg12
F3.5
sg13
F3.1538461538461537
sg14
F3.4
sg15
F2.875
sg16
I0
sg17
F2.75
sg18
I0
sg19
F3.6666666666666665
sg20
F3.38
sg21
I0
ssI491
(dp511
g2
F5.0
sg3
F4.153846153846154
sg4
F4.25
sg5
F4.416666666666667
sg6
I0
sg7
I0
sg8
F4.25
sg9
F4.130434782608695
sg10
F4.3
sg11
I0
sg12
F3.7
sg13
F5.0
sg14
F4.214285714285714
sg15
F4.25
sg16
I0
sg17
F4.019230769230769
sg18
I0
sg19
F4.5
sg20
F5.0
sg21
I0
ssI492
(dp512
g2
F3.6
sg3
F3.774193548387097
sg4
F4.133333333333334
sg5
F4.074074074074074
sg6
F4.25
sg7
I0
sg8
F3.857142857142857
sg9
F3.5
sg10
F3.7
sg11
F3.25
sg12
F4.0
sg13
I0
sg14
F3.2857142857142856
sg15
F4.128205128205129
sg16
I0
sg17
F3.8
sg18
I0
sg19
F5.0
sg20
F4.023809523809524
sg21
I0
ssI493
(dp513
g2
I0
sg3
F3.6818181818181817
sg4
F3.533333333333333
sg5
F3.526315789473684
sg6
F2.4285714285714284
sg7
I0
sg8
F4.0625
sg9
F4.2
sg10
F3.4
sg11
I0
sg12
I0
sg13
I0
sg14
I0
sg15
F3.82
sg16
I0
sg17
F4.0
sg18
I0
sg19
F3.75
sg20
F3.6363636363636362
sg21
F4.0
ssI494
(dp514
g2
I0
sg3
F4.666666666666667
sg4
F4.444444444444445
sg5
F4.2727272727272725
sg6
F5.0
sg7
I0
sg8
F4.0
sg9
I0
sg10
F2.0
sg11
I0
sg12
I0
sg13
I0
sg14
I0
sg15
F4.352941176470588
sg16
I0
sg17
F1.5
sg18
I0
sg19
F4.333333333333333
sg20
F4.0
sg21
F4.0
ssI495
(dp515
g2
F4.475
sg3
F4.303030303030303
sg4
F3.8452380952380953
sg5
F3.6315789473684212
sg6
F3.4583333333333335
sg7
F4.25
sg8
F4.228070175438597
sg9
F4.176470588235294
sg10
F3.130434782608696
sg11
F4.2
sg12
F3.75
sg13
F3.933333333333333
sg14
F3.4285714285714284
sg15
F3.86046511627907
sg16
I0
sg17
F3.9895833333333335
sg18
F3.75
sg19
F4.266666666666667
sg20
F4.032467532467533
sg21
F5.0
ssI496
(dp516
g2
F5.0
sg3
F3.6
sg4
F3.3
sg5
F2.9166666666666665
sg6
F2.5
sg7
I0
sg8
F4.5
sg9
F3.3181818181818183
sg10
F3.8
sg11
F3.8333333333333335
sg12
F2.625
sg13
F3.8333333333333335
sg14
F3.0
sg15
F3.2777777777777777
sg16
I0
sg17
F2.8333333333333335
sg18
I0
sg19
F2.0
sg20
F5.0
sg21
I0
ssI497
(dp517
g2
F3.4285714285714284
sg3
F3.9827586206896552
sg4
F3.0555555555555554
sg5
F2.75
sg6
F4.333333333333333
sg7
I0
sg8
F3.8636363636363638
sg9
F3.7222222222222223
sg10
F2.3333333333333335
sg11
F4.0
sg12
F4.0
sg13
F3.6666666666666665
sg14
F3.375
sg15
F2.8461538461538463
sg16
I0
sg17
F3.5
sg18
I0
sg19
F4.125
sg20
F3.3214285714285716
sg21
I0
ssI498
(dp518
g2
F4.0
sg3
F4.428571428571429
sg4
F3.0
sg5
F3.769230769230769
sg6
I0
sg7
I0
sg8
F3.8333333333333335
sg9
F4.25
sg10
I0
sg11
F5.0
sg12
F5.0
sg13
F5.0
sg14
F4.333333333333333
sg15
F3.4615384615384617
sg16
I0
sg17
F4.230769230769231
sg18
I0
sg19
F5.0
sg20
F3.857142857142857
sg21
F3.0
ssI499
(dp519
g2
F3.0
sg3
F4.1
sg4
F2.3333333333333335
sg5
F3.7857142857142856
sg6
F3.8
sg7
I0
sg8
F3.5
sg9
F4.0
sg10
F3.6666666666666665
sg11
F4.3
sg12
F3.5
sg13
I0
sg14
F3.5
sg15
F3.7857142857142856
sg16
I0
sg17
F3.5714285714285716
sg18
F4.5
sg19
I0
sg20
F4.0
sg21
F4.357142857142857
ssI500
(dp520
g2
F4.5
sg3
F3.1481481481481484
sg4
F3.8333333333333335
sg5
F3.611111111111111
sg6
F3.3333333333333335
sg7
I0
sg8
F3.2857142857142856
sg9
F3.111111111111111
sg10
F3.7142857142857144
sg11
F3.4545454545454546
sg12
F3.5652173913043477
sg13
F3.5
sg14
F3.5789473684210527
sg15
F3.75
sg16
I0
sg17
F3.211267605633803
sg18
I0
sg19
F4.0
sg20
F3.25
sg21
I0
ssI501
(dp521
g2
F3.0
sg3
F2.9375
sg4
F3.6
sg5
F3.2142857142857144
sg6
F3.5
sg7
I0
sg8
F3.090909090909091
sg9
F3.25
sg10
F2.0
sg11
F2.0
sg12
F2.75
sg13
I0
sg14
F2.6666666666666665
sg15
F3.3076923076923075
sg16
I0
sg17
F3.3333333333333335
sg18
I0
sg19
F3.0
sg20
F3.3333333333333335
sg21
I0
ssI502
(dp522
g2
F2.0
sg3
F3.2941176470588234
sg4
F4.055555555555555
sg5
F3.75
sg6
F3.5
sg7
I0
sg8
F4.416666666666667
sg9
F1.9166666666666667
sg10
F3.3333333333333335
sg11
F4.0
sg12
F4.0
sg13
I0
sg14
F3.375
sg15
F2.5
sg16
I0
sg17
F3.2
sg18
I0
sg19
F5.0
sg20
F2.9444444444444446
sg21
F5.0
ssI503
(dp523
g2
F3.45
sg3
F3.6048387096774195
sg4
F3.3461538461538463
sg5
F2.909090909090909
sg6
F3.0555555555555554
sg7
I0
sg8
F3.8
sg9
F3.2142857142857144
sg10
F2.75
sg11
F3.125
sg12
F3.3
sg13
F3.0
sg14
F2.75
sg15
F2.892857142857143
sg16
I0
sg17
F2.92
sg18
F3.5
sg19
F3.7
sg20
F3.375
sg21
I0
ssI504
(dp524
g2
F4.0
sg3
F3.9245283018867925
sg4
F3.75
sg5
F4.0625
sg6
F3.5
sg7
I0
sg8
F4.027777777777778
sg9
F3.736111111111111
sg10
F3.75
sg11
F4.0
sg12
F4.166666666666667
sg13
F4.0
sg14
F3.7
sg15
F3.4166666666666665
sg16
I0
sg17
F3.7604166666666665
sg18
F3.625
sg19
F4.25
sg20
F3.875
sg21
F4.0
ssI505
(dp525
g2
F4.375
sg3
F4.0
sg4
F3.9285714285714284
sg5
F4.0
sg6
F4.4375
sg7
I0
sg8
F4.333333333333333
sg9
F3.0
sg10
F4.5
sg11
F4.625
sg12
F4.375
sg13
I0
sg14
F4.5
sg15
F4.2
sg16
I0
sg17
F3.772727272727273
sg18
I0
sg19
I0
sg20
F4.590909090909091
sg21
I0
ssI506
(dp526
g2
F2.0
sg3
F3.326923076923077
sg4
F4.166666666666667
sg5
F2.3333333333333335
sg6
F4.5
sg7
I0
sg8
F3.5
sg9
F3.375
sg10
F2.5
sg11
F3.0
sg12
F2.0
sg13
F5.0
sg14
F3.0
sg15
F2.3333333333333335
sg16
I0
sg17
F3.0277777777777777
sg18
F3.5
sg19
F3.0
sg20
F3.1
sg21
F4.0
ssI507
(dp527
g2
F3.0
sg3
F3.3333333333333335
sg4
F3.3333333333333335
sg5
F3.2
sg6
F3.0
sg7
I0
sg8
F3.0
sg9
F3.6666666666666665
sg10
F3.0
sg11
F3.0
sg12
F3.0
sg13
F3.0
sg14
F4.0
sg15
F3.375
sg16
I0
sg17
F3.5
sg18
I0
sg19
F3.3333333333333335
sg20
F3.5
sg21
F3.0
ssI508
(dp528
g2
I0
sg3
F1.9545454545454546
sg4
F3.75
sg5
F2.7857142857142856
sg6
F1.75
sg7
I0
sg8
I0
sg9
F1.7
sg10
F1.6666666666666667
sg11
F1.8333333333333333
sg12
F1.5
sg13
I0
sg14
F2.0
sg15
F1.75
sg16
I0
sg17
F2.34375
sg18
I0
sg19
F4.5
sg20
F2.0
sg21
F3.0
ssI509
(dp529
g2
F3.2916666666666665
sg3
F3.31875
sg4
F3.2294117647058824
sg5
F3.258522727272727
sg6
F2.7954545454545454
sg7
F3.5
sg8
F3.230769230769231
sg9
F3.2298387096774195
sg10
F3.2716535433070866
sg11
F3.2755102040816326
sg12
F3.3513513513513513
sg13
F3.3541666666666665
sg14
F3.19140625
sg15
F3.1693548387096775
sg16
I0
sg17
F3.1425339366515836
sg18
F4.0
sg19
F3.2142857142857144
sg20
F3.093220338983051
sg21
F3.5
ssI510
(dp530
g2
F2.5416666666666665
sg3
F2.951923076923077
sg4
F2.272727272727273
sg5
F2.9411764705882355
sg6
F2.2
sg7
F4.0
sg8
F3.0416666666666665
sg9
F2.9473684210526314
sg10
F2.7777777777777777
sg11
F3.5
sg12
F3.5
sg13
F4.0
sg14
F3.1666666666666665
sg15
F2.5714285714285716
sg16
I0
sg17
F2.883720930232558
sg18
F4.0
sg19
F3.9
sg20
F2.5
sg21
F2.1666666666666665
ssI511
(dp531
g2
F4.125
sg3
F4.216666666666667
sg4
F3.9761904761904763
sg5
F4.166666666666667
sg6
F3.375
sg7
I0
sg8
F4.8
sg9
F4.3
sg10
F4.0
sg11
F3.5
sg12
F4.5
sg13
F4.416666666666667
sg14
F3.8333333333333335
sg15
F4.068181818181818
sg16
I0
sg17
F4.3125
sg18
I0
sg19
F4.666666666666667
sg20
F3.9375
sg21
F4.0
ssI512
(dp532
g2
F4.4
sg3
F3.7916666666666665
sg4
F3.5
sg5
F3.3333333333333335
sg6
F5.0
sg7
I0
sg8
F4.333333333333333
sg9
F3.8
sg10
F3.4
sg11
F3.6666666666666665
sg12
F3.6666666666666665
sg13
F4.0
sg14
F3.4
sg15
F3.6315789473684212
sg16
I0
sg17
F3.4615384615384617
sg18
I0
sg19
F4.8
sg20
F4.0476190476190474
sg21
F3.0
ssI513
(dp533
g2
F4.0
sg3
F4.333333333333333
sg4
F3.857142857142857
sg5
F3.8
sg6
F2.8333333333333335
sg7
I0
sg8
F4.5
sg9
F3.6666666666666665
sg10
F3.5
sg11
F4.0
sg12
F4.0
sg13
F4.5
sg14
F4.0
sg15
F3.85
sg16
I0
sg17
F3.8333333333333335
sg18
I0
sg19
F4.375
sg20
F3.8333333333333335
sg21
F3.6666666666666665
ssI514
(dp534
g2
F3.0689655172413794
sg3
F3.647727272727273
sg4
F3.26056338028169
sg5
F3.4066666666666667
sg6
F2.6988636363636362
sg7
F4.0
sg8
F3.5851063829787235
sg9
F3.478723404255319
sg10
F3.2142857142857144
sg11
F3.6
sg12
F3.8333333333333335
sg13
F3.7083333333333335
sg14
F3.638888888888889
sg15
F3.3469387755102042
sg16
F3.0
sg17
F3.3758620689655174
sg18
F3.6
sg19
F3.55
sg20
F3.318681318681319
sg21
F3.9166666666666665
ssI515
(dp535
g2
F4.625
sg3
F4.923076923076923
sg4
F4.9
sg5
F4.857142857142857
sg6
F4.5
sg7
I0
sg8
F4.85
sg9
F5.0
sg10
F4.0
sg11
I0
sg12
F5.0
sg13
F5.0
sg14
F5.0
sg15
F4.785714285714286
sg16
I0
sg17
F5.0
sg18
I0
sg19
F4.8
sg20
F4.6875
sg21
I0
ssI516
(dp536
g2
I0
sg3
F3.8
sg4
F4.0
sg5
F4.0
sg6
I0
sg7
I0
sg8
F3.4
sg9
F3.5
sg10
F4.0
sg11
I0
sg12
F5.0
sg13
I0
sg14
F5.0
sg15
F4.0
sg16
I0
sg17
F3.5384615384615383
sg18
I0
sg19
F3.25
sg20
F3.6666666666666665
sg21
F3.0
ssI517
(dp537
g2
F2.1153846153846154
sg3
F2.4685714285714284
sg4
F2.1944444444444446
sg5
F2.4110169491525424
sg6
F1.3
sg7
F1.25
sg8
F2.022727272727273
sg9
F2.5
sg10
F2.9166666666666665
sg11
F2.9537037037037037
sg12
F2.611111111111111
sg13
F2.6363636363636362
sg14
F2.7216981132075473
sg15
F1.8214285714285714
sg16
F1.75
sg17
F2.2443181818181817
sg18
F1.75
sg19
F2.54
sg20
F1.8055555555555556
sg21
F2.25
ssI518
(dp538
g2
F4.0
sg3
F3.3636363636363638
sg4
F3.5
sg5
F3.5714285714285716
sg6
F4.333333333333333
sg7
I0
sg8
F4.166666666666667
sg9
F2.875
sg10
F4.0
sg11
F3.1666666666666665
sg12
F4.0
sg13
F4.0
sg14
F4.0
sg15
F3.857142857142857
sg16
I0
sg17
F3.9285714285714284
sg18
I0
sg19
F2.5
sg20
F4.0
sg21
I0
ssI519
(dp539
g2
F5.0
sg3
F4.666666666666667
sg4
F4.0
sg5
F3.75
sg6
I0
sg7
I0
sg8
F4.590909090909091
sg9
F4.111111111111111
sg10
I0
sg11
I0
sg12
I0
sg13
F4.0
sg14
I0
sg15
F4.285714285714286
sg16
I0
sg17
F4.142857142857143
sg18
I0
sg19
F5.0
sg20
F4.75
sg21
I0
ssI520
(dp540
g2
F3.95
sg3
F3.8461538461538463
sg4
F3.8615384615384616
sg5
F3.9461538461538463
sg6
F3.8214285714285716
sg7
F4.5
sg8
F3.88
sg9
F3.9782608695652173
sg10
F4.103448275862069
sg11
F3.6
sg12
F4.2
sg13
F3.5
sg14
F4.208333333333333
sg15
F3.893939393939394
sg16
I0
sg17
F3.9347826086956523
sg18
F3.5
sg19
F3.9166666666666665
sg20
F4.014705882352941
sg21
F3.1666666666666665
ssI521
(dp541
g2
F3.4
sg3
F3.7
sg4
F3.2
sg5
F3.6666666666666665
sg6
I0
sg7
I0
sg8
F3.5555555555555554
sg9
F3.7
sg10
F3.75
sg11
F4.0
sg12
F4.0
sg13
I0
sg14
F4.0
sg15
F3.6
sg16
I0
sg17
F3.5714285714285716
sg18
I0
sg19
I0
sg20
F3.625
sg21
I0
ssI522
(dp542
g2
F4.0
sg3
F3.7873563218390807
sg4
F4.028846153846154
sg5
F3.789473684210526
sg6
F4.375
sg7
F3.5
sg8
F4.031914893617022
sg9
F3.772727272727273
sg10
F3.7142857142857144
sg11
F3.7857142857142856
sg12
F3.6818181818181817
sg13
F3.9523809523809526
sg14
F2.2
sg15
F3.914473684210526
sg16
I0
sg17
F3.683098591549296
sg18
F4.25
sg19
F3.7
sg20
F3.9622641509433962
sg21
F4.75
ssI523
(dp543
g2
F5.0
sg3
F4.743589743589744
sg4
F4.666666666666667
sg5
F4.637931034482759
sg6
F5.0
sg7
I0
sg8
F4.833333333333333
sg9
F4.777777777777778
sg10
F4.732142857142857
sg11
F4.75
sg12
F4.604166666666667
sg13
F4.916666666666667
sg14
F4.392857142857143
sg15
F4.782608695652174
sg16
I0
sg17
F4.4523809523809526
sg18
I0
sg19
F4.75
sg20
F4.730769230769231
sg21
I0
ssI524
(dp544
g2
F3.1666666666666665
sg3
F3.4545454545454546
sg4
F3.4
sg5
F3.8085106382978724
sg6
F3.1666666666666665
sg7
F3.0
sg8
F2.857142857142857
sg9
F3.466666666666667
sg10
F4.0
sg11
F3.5
sg12
F4.0
sg13
F5.0
sg14
F3.2
sg15
F3.5428571428571427
sg16
I0
sg17
F3.4
sg18
I0
sg19
F4.0
sg20
F3.5555555555555554
sg21
F3.8
ssI525
(dp545
g2
F3.8823529411764706
sg3
F3.6769662921348316
sg4
F3.5063291139240507
sg5
F3.5205479452054793
sg6
F3.8333333333333335
sg7
F3.5
sg8
F3.7906976744186047
sg9
F3.565891472868217
sg10
F3.51875
sg11
F3.5403225806451615
sg12
F3.3214285714285716
sg13
F3.4347826086956523
sg14
F3.326530612244898
sg15
F3.508130081300813
sg16
F3.0
sg17
F3.5462555066079293
sg18
F3.564516129032258
sg19
F3.7083333333333335
sg20
F3.6164383561643834
sg21
F3.75
ssI526
(dp546
g2
F3.75
sg3
F4.211111111111111
sg4
F4.166666666666667
sg5
F4.277777777777778
sg6
F4.0
sg7
I0
sg8
F4.3076923076923075
sg9
F4.153846153846154
sg10
F3.75
sg11
I0
sg12
F3.8333333333333335
sg13
F3.5
sg14
F3.8333333333333335
sg15
F4.0
sg16
I0
sg17
F4.2
sg18
I0
sg19
F4.333333333333333
sg20
F4.0
sg21
I0
ssI527
(dp547
g2
F3.909090909090909
sg3
F3.9285714285714284
sg4
F4.351351351351352
sg5
F4.216867469879518
sg6
F4.333333333333333
sg7
F4.0
sg8
F3.6666666666666665
sg9
F3.909090909090909
sg10
F4.142857142857143
sg11
F4.0
sg12
F3.9411764705882355
sg13
F4.333333333333333
sg14
F4.076923076923077
sg15
F4.395348837209302
sg16
I0
sg17
F3.980769230769231
sg18
F4.0
sg19
F3.625
sg20
F4.25
sg21
F4.0
ssI528
(dp548
g2
F3.142857142857143
sg3
F3.5641025641025643
sg4
F3.357142857142857
sg5
F2.875
sg6
F4.0
sg7
F4.0
sg8
F3.8846153846153846
sg9
F3.142857142857143
sg10
F2.125
sg11
I0
sg12
F2.75
sg13
F3.5555555555555554
sg14
F2.6666666666666665
sg15
F3.8035714285714284
sg16
I0
sg17
F3.03125
sg18
F4.5
sg19
F4.125
sg20
F4.0
sg21
I0
ssI529
(dp549
g2
F4.0
sg3
F4.0
sg4
F4.25
sg5
F3.5454545454545454
sg6
I0
sg7
I0
sg8
I0
sg9
F3.0
sg10
F3.2
sg11
F3.0
sg12
F3.0
sg13
I0
sg14
F3.0
sg15
F3.888888888888889
sg16
I0
sg17
F2.5833333333333335
sg18
I0
sg19
I0
sg20
F3.875
sg21
I0
ssI530
(dp550
g2
F3.0
sg3
F3.8666666666666667
sg4
F3.5
sg5
F3.5
sg6
F4.0
sg7
I0
sg8
F4.0
sg9
F3.8
sg10
F5.0
sg11
I0
sg12
I0
sg13
F4.0
sg14
F3.0
sg15
F3.5
sg16
I0
sg17
F3.8
sg18
I0
sg19
F4.0
sg20
F3.8461538461538463
sg21
F5.0
ssI531
(dp551
g2
I0
sg3
F4.0
sg4
F4.0
sg5
F4.0
sg6
F3.0
sg7
I0
sg8
F4.5
sg9
F3.0
sg10
F3.0
sg11
F3.0
sg12
I0
sg13
I0
sg14
F3.0
sg15
F3.9
sg16
I0
sg17
F2.5
sg18
I0
sg19
I0
sg20
F4.4
sg21
F3.0
ssI532
(dp552
g2
F4.333333333333333
sg3
F4.296296296296297
sg4
F4.555555555555555
sg5
F4.5
sg6
F4.5
sg7
F4.0
sg8
F4.090909090909091
sg9
F4.0
sg10
F4.0
sg11
I0
sg12
I0
sg13
I0
sg14
I0
sg15
F4.357142857142857
sg16
I0
sg17
F3.75
sg18
I0
sg19
F5.0
sg20
F4.285714285714286
sg21
F3.0
ssI533
(dp553
g2
F4.0
sg3
F4.166666666666667
sg4
F4.291666666666667
sg5
F4.4375
sg6
F4.431818181818182
sg7
I0
sg8
F4.333333333333333
sg9
F4.5
sg10
F5.0
sg11
F3.0
sg12
F5.0
sg13
F4.0
sg14
F5.0
sg15
F4.458333333333333
sg16
I0
sg17
F4.285714285714286
sg18
I0
sg19
F5.0
sg20
F4.5
sg21
F5.0
ssI534
(dp554
g2
F3.7954545454545454
sg3
F3.825242718446602
sg4
F3.6951219512195124
sg5
F3.725296442687747
sg6
F4.15625
sg7
F4.5
sg8
F3.816666666666667
sg9
F3.9375
sg10
F3.799107142857143
sg11
F4.0227272727272725
sg12
F3.9226190476190474
sg13
F3.5253164556962027
sg14
F3.897590361445783
sg15
F3.743197278911565
sg16
I0
sg17
F3.886574074074074
sg18
I0
sg19
F3.861111111111111
sg20
F3.784
sg21
F3.7142857142857144
ssI535
(dp555
g2
F3.5
sg3
F2.6363636363636362
sg4
F4.0
sg5
F1.0
sg6
F3.0
sg7
I0
sg8
F2.75
sg9
F2.5555555555555554
sg10
F1.0
sg11
F3.0
sg12
F5.0
sg13
I0
sg14
I0
sg15
F2.1666666666666665
sg16
I0
sg17
F2.5555555555555554
sg18
I0
sg19
I0
sg20
F1.8
sg21
I0
ssI536
(dp556
g2
F3.0
sg3
F3.652173913043478
sg4
F2.8333333333333335
sg5
F4.0
sg6
F2.75
sg7
I0
sg8
F2.8
sg9
F2.75
sg10
I0
sg11
I0
sg12
I0
sg13
F5.0
sg14
I0
sg15
F3.3
sg16
I0
sg17
F3.5384615384615383
sg18
I0
sg19
F5.0
sg20
F3.4285714285714284
sg21
F3.3333333333333335
ssI537
(dp557
g2
F4.5
sg3
F4.045454545454546
sg4
F3.1666666666666665
sg5
F4.4
sg6
F5.0
sg7
I0
sg8
F4.5
sg9
F2.8333333333333335
sg10
F4.5625
sg11
I0
sg12
I0
sg13
F3.857142857142857
sg14
I0
sg15
F4.0
sg16
I0
sg17
F3.9
sg18
F5.0
sg19
F3.1666666666666665
sg20
F4.678571428571429
sg21
F4.5
ssI538
(dp558
g2
F4.0
sg3
F4.333333333333333
sg4
F5.0
sg5
F4.583333333333333
sg6
I0
sg7
I0
sg8
F4.5
sg9
F4.333333333333333
sg10
F4.571428571428571
sg11
F4.6923076923076925
sg12
F4.75
sg13
F4.5
sg14
F4.636363636363637
sg15
F4.666666666666667
sg16
I0
sg17
F4.476190476190476
sg18
I0
sg19
F2.5
sg20
I0
sg21
F4.5
ssI539
(dp559
g2
I0
sg3
F3.9444444444444446
sg4
F3.0
sg5
F4.333333333333333
sg6
F4.25
sg7
I0
sg8
F3.7
sg9
F4.333333333333333
sg10
F4.5
sg11
F3.5
sg12
F4.5
sg13
F4.5
sg14
F4.333333333333333
sg15
F3.75
sg16
I0
sg17
F3.810344827586207
sg18
I0
sg19
F3.5
sg20
F2.0
sg21
I0
ssI540
(dp560
g2
F3.8333333333333335
sg3
F3.9545454545454546
sg4
F4.458333333333333
sg5
F3.9375
sg6
F3.7
sg7
F5.0
sg8
F4.388888888888889
sg9
F3.1666666666666665
sg10
F3.642857142857143
sg11
F4.0
sg12
F3.5
sg13
F4.166666666666667
sg14
F3.75
sg15
F4.204545454545454
sg16
I0
sg17
F3.769230769230769
sg18
I0
sg19
F5.0
sg20
F3.9166666666666665
sg21
I0
ssI541
(dp561
g2
F3.8
sg3
F3.838709677419355
sg4
F3.2222222222222223
sg5
F3.5217391304347827
sg6
F3.6
sg7
I0
sg8
F3.2666666666666666
sg9
F3.473684210526316
sg10
F2.857142857142857
sg11
F3.4
sg12
F3.6666666666666665
sg13
F3.0
sg14
F3.1818181818181817
sg15
F3.2413793103448274
sg16
I0
sg17
F3.135135135135135
sg18
I0
sg19
F5.0
sg20
F3.5714285714285716
sg21
F3.4
ssI542
(dp562
g2
F3.7
sg3
F3.858974358974359
sg4
F3.6739130434782608
sg5
F3.760869565217391
sg6
F2.625
sg7
I0
sg8
F3.3863636363636362
sg9
F4.0588235294117645
sg10
F3.7
sg11
F4.555555555555555
sg12
F4.230769230769231
sg13
F2.8
sg14
F4.0625
sg15
F3.2037037037037037
sg16
I0
sg17
F3.425925925925926
sg18
F2.5
sg19
F5.0
sg20
F3.3529411764705883
sg21
F3.5
ssI543
(dp563
g2
F4.5
sg3
F4.130434782608695
sg4
F4.909090909090909
sg5
F5.0
sg6
F5.0
sg7
I0
sg8
F4.846153846153846
sg9
F4.181818181818182
sg10
F5.0
sg11
F5.0
sg12
F5.0
sg13
F5.0
sg14
F5.0
sg15
F4.733333333333333
sg16
I0
sg17
F4.333333333333333
sg18
I0
sg19
F3.5
sg20
F5.0
sg21
F4.0
ssI544
(dp564
g2
F3.5
sg3
F4.625
sg4
F4.333333333333333
sg5
F4.333333333333333
sg6
F5.0
sg7
I0
sg8
F4.0
sg9
F4.5
sg10
F3.0
sg11
I0
sg12
F3.0
sg13
I0
sg14
F3.0
sg15
F4.25
sg16
I0
sg17
F4.333333333333333
sg18
F5.0
sg19
I0
sg20
F4.125
sg21
I0
ssI545
(dp565
g2
F3.6666666666666665
sg3
F3.1
sg4
F3.6
sg5
F2.7
sg6
F3.0
sg7
I0
sg8
F4.375
sg9
F2.8333333333333335
sg10
F2.5
sg11
I0
sg12
I0
sg13
F3.5
sg14
F3.0
sg15
F3.5625
sg16
I0
sg17
F2.875
sg18
I0
sg19
F3.8333333333333335
sg20
F3.8333333333333335
sg21
F2.5
ssI546
(dp566
g2
F2.6666666666666665
sg3
F3.0555555555555554
sg4
F3.1176470588235294
sg5
F3.3
sg6
F3.7142857142857144
sg7
I0
sg8
F3.1666666666666665
sg9
F3.75
sg10
F4.0
sg11
F2.0
sg12
F2.0
sg13
I0
sg14
F2.3333333333333335
sg15
F3.5
sg16
I0
sg17
F3.5
sg18
I0
sg19
F2.0
sg20
F3.5
sg21
I0
ssI547
(dp567
g2
F4.5
sg3
F4.0
sg4
F5.0
sg5
I0
sg6
I0
sg7
F5.0
sg8
F3.6666666666666665
sg9
F4.166666666666667
sg10
F5.0
sg11
F3.0
sg12
I0
sg13
I0
sg14
I0
sg15
F3.6666666666666665
sg16
I0
sg17
F4.8
sg18
F3.5
sg19
F2.6666666666666665
sg20
F4.2
sg21
I0
ssI548
(dp568
g2
F3.5
sg3
F4.269230769230769
sg4
F3.6
sg5
F3.9285714285714284
sg6
I0
sg7
I0
sg8
F4.3
sg9
F3.4
sg10
F4.0
sg11
I0
sg12
I0
sg13
F5.0
sg14
I0
sg15
F4.0
sg16
I0
sg17
F3.9375
sg18
F3.5
sg19
F4.75
sg20
F4.875
sg21
I0
ssI549
(dp569
g2
F5.0
sg3
F4.111111111111111
sg4
F3.4285714285714284
sg5
F2.875
sg6
I0
sg7
I0
sg8
F4.571428571428571
sg9
I0
sg10
F3.1666666666666665
sg11
I0
sg12
I0
sg13
F4.5
sg14
F1.0
sg15
F3.8333333333333335
sg16
I0
sg17
I0
sg18
I0
sg19
F3.0
sg20
F4.857142857142857
sg21
I0
ssI550
(dp570
g2
F5.0
sg3
F3.9583333333333335
sg4
F4.4
sg5
F4.178571428571429
sg6
I0
sg7
I0
sg8
F4.25
sg9
F4.0
sg10
F4.0
sg11
I0
sg12
F3.875
sg13
F4.428571428571429
sg14
F4.166666666666667
sg15
F4.233333333333333
sg16
I0
sg17
F4.166666666666667
sg18
I0
sg19
F4.0
sg20
F4.25
sg21
I0
ssI551
(dp571
g2
F3.9583333333333335
sg3
F3.723404255319149
sg4
F3.6805555555555554
sg5
F3.5727272727272728
sg6
F4.166666666666667
sg7
F4.0
sg8
F3.9107142857142856
sg9
F4.090909090909091
sg10
F3.0357142857142856
sg11
I0
sg12
F3.8333333333333335
sg13
F3.84375
sg14
F4.3
sg15
F3.75
sg16
I0
sg17
F3.7142857142857144
sg18
F4.0
sg19
F4.090909090909091
sg20
F3.8333333333333335
sg21
I0
ssI552
(dp572
g2
F3.25
sg3
F3.3395061728395063
sg4
F3.0606060606060606
sg5
F3.0272727272727273
sg6
F2.6666666666666665
sg7
F3.6666666666666665
sg8
F3.3653846153846154
sg9
F3.1515151515151514
sg10
F3.0961538461538463
sg11
F3.8214285714285716
sg12
F3.423076923076923
sg13
F4.0
sg14
F3.0
sg15
F2.8583333333333334
sg16
I0
sg17
F3.1904761904761907
sg18
I0
sg19
F3.5
sg20
F3.1
sg21
F2.375
ssI553
(dp573
g2
F4.214285714285714
sg3
F4.421568627450981
sg4
F4.375
sg5
F3.9285714285714284
sg6
I0
sg7
F4.0
sg8
F4.4361702127659575
sg9
F4.045454545454546
sg10
F4.0
sg11
I0
sg12
I0
sg13
I0
sg14
I0
sg15
F4.277777777777778
sg16
I0
sg17
F4.023809523809524
sg18
F4.75
sg19
F4.0
sg20
F4.371428571428571
sg21
I0
ssI554
(dp574
g2
F4.0
sg3
F4.181818181818182
sg4
F4.5
sg5
F3.7142857142857144
sg6
F3.142857142857143
sg7
I0
sg8
F4.5
sg9
F4.357142857142857
sg10
F3.466666666666667
sg11
F3.909090909090909
sg12
F3.642857142857143
sg13
F3.5
sg14
F4.0
sg15
F3.727272727272727
sg16
I0
sg17
F3.757575757575758
sg18
I0
sg19
F4.5
sg20
F4.2727272727272725
sg21
F3.0
ssI555
(dp575
g2
F3.6333333333333333
sg3
F3.6789473684210527
sg4
F3.287878787878788
sg5
F3.5555555555555554
sg6
F2.926829268292683
sg7
F3.0
sg8
F3.6774193548387095
sg9
F3.5806451612903225
sg10
F3.5813953488372094
sg11
F3.4545454545454546
sg12
F4.0
sg13
F4.0
sg14
F3.8620689655172415
sg15
F3.3943661971830985
sg16
I0
sg17
F3.4893617021276597
sg18
F3.0
sg19
F3.888888888888889
sg20
F3.392
sg21
F3.272727272727273
ssI556
(dp576
g2
F4.0
sg3
F3.7857142857142856
sg4
F4.25
sg5
F4.153846153846154
sg6
F4.0
sg7
I0
sg8
I0
sg9
F3.5
sg10
F4.038461538461538
sg11
F4.5
sg12
F5.0
sg13
F4.090909090909091
sg14
F4.416666666666667
sg15
F4.125
sg16
I0
sg17
F4.333333333333333
sg18
I0
sg19
I0
sg20
F3.625
sg21
I0
ssI557
(dp577
g2
F5.0
sg3
F3.9166666666666665
sg4
F3.25
sg5
F3.875
sg6
F4.5
sg7
I0
sg8
F4.833333333333333
sg9
F4.0
sg10
F4.625
sg11
F0.5
sg12
F3.5
sg13
F4.5
sg14
F4.333333333333333
sg15
F3.8214285714285716
sg16
I0
sg17
F3.5
sg18
I0
sg19
F3.75
sg20
F4.75
sg21
I0
ssI558
(dp578
g2
F4.2
sg3
F3.967741935483871
sg4
F4.0
sg5
F4.166666666666667
sg6
F3.25
sg7
I0
sg8
F3.6
sg9
F3.9285714285714284
sg10
F3.8461538461538463
sg11
F5.0
sg12
F4.333333333333333
sg13
I0
sg14
F4.5
sg15
F4.2
sg16
I0
sg17
F3.9411764705882355
sg18
I0
sg19
F4.5
sg20
F3.888888888888889
sg21
I0
ssI559
(dp579
g2
F3.0
sg3
F3.5714285714285716
sg4
F3.4444444444444446
sg5
F3.4146341463414633
sg6
F3.2
sg7
I0
sg8
F3.2777777777777777
sg9
F3.4615384615384617
sg10
F3.4210526315789473
sg11
F3.5833333333333335
sg12
F3.857142857142857
sg13
F3.3333333333333335
sg14
F3.4782608695652173
sg15
F3.2542372881355934
sg16
I0
sg17
F3.1311475409836067
sg18
I0
sg19
F3.4
sg20
F3.2195121951219514
sg21
F3.0
ssI560
(dp580
g2
F3.697674418604651
sg3
F3.6146341463414635
sg4
F3.5544554455445545
sg5
F3.519047619047619
sg6
F3.7045454545454546
sg7
F4.5
sg8
F3.808641975308642
sg9
F3.38125
sg10
F3.5267857142857144
sg11
F3.4411764705882355
sg12
F3.4857142857142858
sg13
F3.3541666666666665
sg14
F3.25
sg15
F3.6233766233766236
sg16
F4.0
sg17
F3.5091463414634148
sg18
F3.4545454545454546
sg19
F3.65625
sg20
F3.6705426356589146
sg21
F3.272727272727273
ssI561
(dp581
g2
F3.576923076923077
sg3
F3.4877300613496933
sg4
F3.257042253521127
sg5
F3.3
sg6
F3.4878048780487805
sg7
F3.8333333333333335
sg8
F3.4770114942528734
sg9
F3.272727272727273
sg10
F3.3972602739726026
sg11
F3.55
sg12
F3.0428571428571427
sg13
F2.93
sg14
F3.159090909090909
sg15
F3.313008130081301
sg16
I0
sg17
F3.3555555555555556
sg18
I0
sg19
F3.8088235294117645
sg20
F3.2275641025641026
sg21
F3.5
ssI562
(dp582
g2
F4.025
sg3
F4.206140350877193
sg4
F3.9558823529411766
sg5
F4.013513513513513
sg6
F4.0625
sg7
F3.75
sg8
F4.1875
sg9
F4.175925925925926
sg10
F4.119047619047619
sg11
F4.2
sg12
F4.363636363636363
sg13
F3.875
sg14
F4.03125
sg15
F3.95
sg16
I0
sg17
F4.144578313253012
sg18
F4.0
sg19
F3.9375
sg20
F4.077464788732394
sg21
F3.25
ssI563
(dp583
g2
F3.5
sg3
F3.345744680851064
sg4
F3.45
sg5
F3.129032258064516
sg6
F3.4166666666666665
sg7
I0
sg8
F3.388888888888889
sg9
F3.25
sg10
F3.206896551724138
sg11
F3.9130434782608696
sg12
F3.7058823529411766
sg13
F3.2777777777777777
sg14
F3.485294117647059
sg15
F3.576923076923077
sg16
I0
sg17
F3.2464788732394365
sg18
I0
sg19
F3.75
sg20
F3.090909090909091
sg21
I0
ssI564
(dp584
g2
F3.2
sg3
F3.3846153846153846
sg4
F3.2222222222222223
sg5
F3.5
sg6
F3.5
sg7
I0
sg8
F3.6041666666666665
sg9
F3.4705882352941178
sg10
F3.3333333333333335
sg11
F3.5
sg12
F1.0
sg13
F2.0
sg14
F2.1666666666666665
sg15
F3.296875
sg16
I0
sg17
F3.6503496503496504
sg18
I0
sg19
F2.5
sg20
F3.3214285714285716
sg21
F4.0
ssI565
(dp585
g2
F4.666666666666667
sg3
F4.1
sg4
F5.0
sg5
F3.3333333333333335
sg6
I0
sg7
I0
sg8
F3.3333333333333335
sg9
F3.7142857142857144
sg10
F3.0
sg11
F3.0
sg12
F3.0
sg13
F3.0
sg14
F3.5
sg15
F3.125
sg16
I0
sg17
F3.2857142857142856
sg18
I0
sg19
F4.5
sg20
F3.8333333333333335
sg21
F5.0
ssI566
(dp586
g2
F4.333333333333333
sg3
F3.727272727272727
sg4
F3.3
sg5
F3.0952380952380953
sg6
F5.0
sg7
I0
sg8
F3.6666666666666665
sg9
F3.8333333333333335
sg10
F3.1666666666666665
sg11
F2.0
sg12
F2.0
sg13
F2.5
sg14
F2.5
sg15
F3.3043478260869565
sg16
I0
sg17
F3.5806451612903225
sg18
I0
sg19
F4.5
sg20
F3.5454545454545454
sg21
F3.0
ssI567
(dp587
g2
F2.6041666666666665
sg3
F2.6033333333333335
sg4
F2.1092436974789917
sg5
F2.0566666666666666
sg6
F2.175
sg7
F4.0
sg8
F2.0161290322580645
sg9
F2.7142857142857144
sg10
F2.106060606060606
sg11
F1.8
sg12
F2.364864864864865
sg13
F1.9296875
sg14
F2.1160714285714284
sg15
F1.9006849315068493
sg16
F2.6666666666666665
sg17
F2.329896907216495
sg18
F2.5
sg19
F2.475
sg20
F2.2828947368421053
sg21
F2.5833333333333335
ssI568
(dp588
g2
F5.0
sg3
F4.233333333333333
sg4
F3.25
sg5
F3.625
sg6
F5.0
sg7
I0
sg8
F4.833333333333333
sg9
F4.0
sg10
F3.5
sg11
F5.0
sg12
I0
sg13
I0
sg14
F2.75
sg15
F3.0
sg16
I0
sg17
F3.8181818181818183
sg18
I0
sg19
F4.5
sg20
F4.3
sg21
F4.5
ssI569
(dp589
g2
F3.0
sg3
F4.2
sg4
F4.333333333333333
sg5
F4.0
sg6
I0
sg7
I0
sg8
F4.142857142857143
sg9
F3.75
sg10
F4.0
sg11
F4.0
sg12
F4.0
sg13
F4.0
sg14
F4.0
sg15
F4.090909090909091
sg16
I0
sg17
F3.857142857142857
sg18
I0
sg19
F3.0
sg20
F4.0
sg21
F4.0
ssI570
(dp590
g2
F3.45
sg3
F3.5542168674698793
sg4
F3.5754716981132075
sg5
F3.4765625
sg6
F3.2916666666666665
sg7
I0
sg8
F3.433333333333333
sg9
F3.4342105263157894
sg10
F3.2884615384615383
sg11
F3.25
sg12
F3.5
sg13
F3.625
sg14
F3.2857142857142856
sg15
F3.4527027027027026
sg16
I0
sg17
F3.2096774193548385
sg18
I0
sg19
F3.5
sg20
F3.5327868852459017
sg21
F3.0
ssI571
(dp591
g2
F3.1
sg3
F3.3636363636363638
sg4
F2.5454545454545454
sg5
F3.3333333333333335
sg6
F2.5
sg7
F1.0
sg8
F4.0
sg9
F3.5
sg10
F2.909090909090909
sg11
F3.0
sg12
F4.0
sg13
I0
sg14
I0
sg15
F2.7
sg16
I0
sg17
F2.6315789473684212
sg18
I0
sg19
I0
sg20
F2.75
sg21
I0
ssI572
(dp592
g2
F4.285714285714286
sg3
F4.188235294117647
sg4
F3.933333333333333
sg5
F3.967741935483871
sg6
F4.333333333333333
sg7
F3.0
sg8
F4.3478260869565215
sg9
F3.977272727272727
sg10
F3.2857142857142856
sg11
F2.6666666666666665
sg12
F3.6666666666666665
sg13
F4.0
sg14
F4.0
sg15
F3.90625
sg16
I0
sg17
F3.875
sg18
I0
sg19
F4.55
sg20
F4.178571428571429
sg21
F4.666666666666667
ssI573
(dp593
g2
F4.37037037037037
sg3
F4.140449438202247
sg4
F4.138888888888889
sg5
F4.117924528301887
sg6
F4.326923076923077
sg7
F4.25
sg8
F4.283333333333333
sg9
F3.814814814814815
sg10
F4.157894736842105
sg11
F4.111111111111111
sg12
F4.416666666666667
sg13
F4.303571428571429
sg14
F4.351851851851852
sg15
F4.170068027210885
sg16
I0
sg17
F4.328125
sg18
F4.25
sg19
F4.323529411764706
sg20
F4.193396226415095
sg21
F3.5
ssI574
(dp594
g2
F5.0
sg3
F4.0
sg4
F4.0
sg5
F4.125
sg6
F5.0
sg7
I0
sg8
F3.5
sg9
F4.0
sg10
F3.0
sg11
F4.5
sg12
F4.5
sg13
F4.0
sg14
F3.6666666666666665
sg15
F3.625
sg16
I0
sg17
F3.875
sg18
I0
sg19
F4.5
sg20
F3.8
sg21
I0
ssI575
(dp595
g2
F3.0
sg3
F3.6363636363636362
sg4
F4.0
sg5
F4.0
sg6
F2.25
sg7
I0
sg8
F3.8333333333333335
sg9
F3.142857142857143
sg10
F4.0
sg11
I0
sg12
F1.0
sg13
I0
sg14
F1.0
sg15
F3.6666666666666665
sg16
I0
sg17
F3.3333333333333335
sg18
F1.0
sg19
F3.0
sg20
F3.7142857142857144
sg21
I0
ssI576
(dp596
g2
F3.5
sg3
F3.1
sg4
F2.857142857142857
sg5
F3.5
sg6
F3.125
sg7
I0
sg8
F4.75
sg9
F2.3333333333333335
sg10
F3.8
sg11
I0
sg12
F3.5
sg13
I0
sg14
F4.0
sg15
F3.1666666666666665
sg16
I0
sg17
F3.2
sg18
I0
sg19
I0
sg20
F3.4166666666666665
sg21
I0
ssI577
(dp597
g2
F3.7142857142857144
sg3
F3.7142857142857144
sg4
F3.3777777777777778
sg5
F3.610169491525424
sg6
F3.090909090909091
sg7
I0
sg8
F3.6
sg9
F3.7083333333333335
sg10
F3.3333333333333335
sg11
F2.75
sg12
F3.5
sg13
I0
sg14
F3.1818181818181817
sg15
F3.557142857142857
sg16
I0
sg17
F3.4571428571428573
sg18
I0
sg19
F4.086956521739131
sg20
F3.388888888888889
sg21
F3.75
ssI578
(dp598
g2
F5.0
sg3
F4.157894736842105
sg4
I0
sg5
F5.0
sg6
F1.8333333333333333
sg7
I0
sg8
F5.0
sg9
F4.321428571428571
sg10
F3.3333333333333335
sg11
I0
sg12
I0
sg13
I0
sg14
F3.5
sg15
F3.3333333333333335
sg16
I0
sg17
F3.9
sg18
I0
sg19
I0
sg20
F3.0
sg21
I0
ssI579
(dp599
g2
F4.0
sg3
F4.181818181818182
sg4
F3.909090909090909
sg5
F4.0
sg6
F3.5
sg7
I0
sg8
F3.6
sg9
F4.304347826086956
sg10
F3.875
sg11
F3.6153846153846154
sg12
F3.7777777777777777
sg13
F5.0
sg14
F3.75
sg15
F3.95
sg16
I0
sg17
F3.967741935483871
sg18
I0
sg19
F4.4
sg20
F4.285714285714286
sg21
I0
ssI580
(dp600
g2
F3.6818181818181817
sg3
F3.458128078817734
sg4
F3.664335664335664
sg5
F3.5714285714285716
sg6
F3.725806451612903
sg7
F2.142857142857143
sg8
F3.75531914893617
sg9
F3.4274193548387095
sg10
F3.642857142857143
sg11
F2.875
sg12
F3.3333333333333335
sg13
F4.166666666666667
sg14
F3.2045454545454546
sg15
F3.7784431137724552
sg16
I0
sg17
F3.335
sg18
F2.875
sg19
F3.590909090909091
sg20
F3.803125
sg21
F3.269230769230769
ssI581
(dp601
g2
F4.5
sg3
F4.375
sg4
F4.277777777777778
sg5
F4.428571428571429
sg6
F4.5
sg7
I0
sg8
F4.5
sg9
F4.222222222222222
sg10
F4.35
sg11
I0
sg12
F4.3
sg13
F4.5
sg14
F4.416666666666667
sg15
F4.285714285714286
sg16
I0
sg17
F4.357142857142857
sg18
I0
sg19
F4.6
sg20
F4.125
sg21
I0
ssI582
(dp602
g2
F4.071428571428571
sg3
F3.975
sg4
F3.9375
sg5
F4.173076923076923
sg6
F4.0
sg7
I0
sg8
F4.1875
sg9
F3.8333333333333335
sg10
F4.35
sg11
I0
sg12
F3.875
sg13
F4.304347826086956
sg14
F4.2
sg15
F4.078125
sg16
I0
sg17
F3.875
sg18
I0
sg19
F3.8333333333333335
sg20
F3.9285714285714284
sg21
F4.5
ssI583
(dp603
g2
I0
sg3
F3.25
sg4
I0
sg5
F3.388888888888889
sg6
F2.8333333333333335
sg7
I0
sg8
F3.1
sg9
F3.44
sg10
F3.5
sg11
F3.3333333333333335
sg12
F3.4545454545454546
sg13
F4.0
sg14
F3.5
sg15
F3.0
sg16
I0
sg17
F3.3555555555555556
sg18
I0
sg19
F4.0
sg20
F3.25
sg21
I0
ssI584
(dp604
g2
F4.8
sg3
F4.32258064516129
sg4
F4.230769230769231
sg5
F4.473684210526316
sg6
F3.75
sg7
I0
sg8
F3.6153846153846154
sg9
F4.352941176470588
sg10
F4.285714285714286
sg11
F4.6
sg12
F4.8
sg13
F5.0
sg14
F4.4
sg15
F4.275862068965517
sg16
I0
sg17
F3.71875
sg18
I0
sg19
F5.0
sg20
F4.448275862068965
sg21
F5.0
ssI585
(dp605
g2
F4.111111111111111
sg3
F4.363636363636363
sg4
F3.25
sg5
F4.166666666666667
sg6
I0
sg7
F4.0
sg8
F4.453125
sg9
F4.25
sg10
F4.0
sg11
I0
sg12
F4.0
sg13
F4.0
sg14
F5.0
sg15
F4.277777777777778
sg16
I0
sg17
F4.3125
sg18
F4.5
sg19
F4.5
sg20
F4.340909090909091
sg21
I0
ssI586
(dp606
g2
F3.7777777777777777
sg3
F4.0
sg4
F4.4
sg5
F4.482905982905983
sg6
F4.2
sg7
I0
sg8
F4.2272727272727275
sg9
F4.142857142857143
sg10
F4.5777777777777775
sg11
F4.5
sg12
F4.61
sg13
F4.416666666666667
sg14
F4.509433962264151
sg15
F4.421052631578948
sg16
F5.0
sg17
F4.4603174603174605
sg18
I0
sg19
F3.8333333333333335
sg20
F4.24
sg21
F4.333333333333333
ssI587
(dp607
g2
F4.222222222222222
sg3
F4.2368421052631575
sg4
F4.2272727272727275
sg5
F4.111111111111111
sg6
F3.0
sg7
F3.5
sg8
F4.25
sg9
F4.132075471698113
sg10
F3.8333333333333335
sg11
F3.5714285714285716
sg12
F4.333333333333333
sg13
I0
sg14
F3.888888888888889
sg15
F4.125
sg16
I0
sg17
F3.8434782608695652
sg18
I0
sg19
F3.7142857142857144
sg20
F4.2631578947368425
sg21
F4.4
ssI588
(dp608
g2
F3.4
sg3
F3.3333333333333335
sg4
F2.6666666666666665
sg5
F2.8181818181818183
sg6
F3.3333333333333335
sg7
I0
sg8
F3.4
sg9
F3.0
sg10
F1.0
sg11
F3.0
sg12
F3.0
sg13
F3.0
sg14
F3.0
sg15
F2.909090909090909
sg16
I0
sg17
F3.25
sg18
I0
sg19
F4.0
sg20
F3.3076923076923075
sg21
F3.0
ssI589
(dp609
g2
F3.0
sg3
F4.038461538461538
sg4
F4.333333333333333
sg5
F4.166666666666667
sg6
F5.0
sg7
I0
sg8
F4.375
sg9
F4.571428571428571
sg10
F4.5
sg11
I0
sg12
I0
sg13
F4.0
sg14
F3.3333333333333335
sg15
F4.0
sg16
I0
sg17
F3.9
sg18
F5.0
sg19
F4.333333333333333
sg20
F4.066666666666666
sg21
F5.0
ssI590
(dp610
g2
F3.360294117647059
sg3
F3.676271186440678
sg4
F3.1965811965811968
sg5
F3.329081632653061
sg6
F3.0568181818181817
sg7
F3.840909090909091
sg8
F3.5450819672131146
sg9
F3.4358974358974357
sg10
F3.3271604938271606
sg11
F3.7857142857142856
sg12
F3.78125
sg13
F3.5652173913043477
sg14
F3.35
sg15
F3.2830578512396693
sg16
I0
sg17
F3.0353159851301115
sg18
F3.75
sg19
F3.989130434782609
sg20
F3.26
sg21
F3.7
ssI591
(dp611
g2
F3.6
sg3
F3.04
sg4
F3.6363636363636362
sg5
F4.3076923076923075
sg6
F2.8
sg7
I0
sg8
F3.0
sg9
F3.125
sg10
F3.5
sg11
F3.0
sg12
F3.8
sg13
I0
sg14
F4.0
sg15
F3.8
sg16
I0
sg17
F3.6666666666666665
sg18
I0
sg19
F4.0
sg20
F2.5625
sg21
F5.0
ssI592
(dp612
g2
F4.0
sg3
F4.0
sg4
F3.8666666666666667
sg5
F3.8275862068965516
sg6
F3.3333333333333335
sg7
I0
sg8
F3.6666666666666665
sg9
F4.071428571428571
sg10
F3.2857142857142856
sg11
F3.8
sg12
F3.8333333333333335
sg13
F5.0
sg14
F3.7777777777777777
sg15
F3.7
sg16
I0
sg17
F3.4473684210526314
sg18
I0
sg19
F4.666666666666667
sg20
F3.606060606060606
sg21
F3.8333333333333335
ssI593
(dp613
g2
F3.6
sg3
F3.723404255319149
sg4
F3.0833333333333335
sg5
F2.9696969696969697
sg6
F4.0
sg7
F4.0
sg8
F3.8125
sg9
F3.3461538461538463
sg10
F2.78125
sg11
F3.5
sg12
F3.142857142857143
sg13
F3.1666666666666665
sg14
F3.0
sg15
F2.9642857142857144
sg16
I0
sg17
F2.9318181818181817
sg18
I0
sg19
F3.4166666666666665
sg20
F3.375
sg21
I0
ssI594
(dp614
g2
F2.033333333333333
sg3
F3.721590909090909
sg4
F4.3
sg5
F4.269230769230769
sg6
F1.7073170731707317
sg7
I0
sg8
F4.068181818181818
sg9
F4.523255813953488
sg10
F3.3947368421052633
sg11
F4.4375
sg12
F4.6
sg13
F4.625
sg14
F4.357142857142857
sg15
F4.380952380952381
sg16
I0
sg17
F4.166666666666667
sg18
F4.5
sg19
F3.642857142857143
sg20
F3.4444444444444446
sg21
F4.0
ssI595
(dp615
g2
F4.0
sg3
F4.4
sg4
F4.5
sg5
F4.333333333333333
sg6
I0
sg7
I0
sg8
F4.333333333333333
sg9
F4.333333333333333
sg10
F5.0
sg11
F4.0
sg12
F4.5
sg13
I0
sg14
F4.5
sg15
F4.0
sg16
I0
sg17
F4.0
sg18
I0
sg19
I0
sg20
F4.4
sg21
I0
ssI596
(dp616
g2
F3.7162162162162162
sg3
F3.5437956204379564
sg4
F3.5
sg5
F3.5221518987341773
sg6
F3.6
sg7
F4.0
sg8
F3.3879310344827585
sg9
F3.5476190476190474
sg10
F3.5256410256410255
sg11
F3.725
sg12
F3.979591836734694
sg13
F3.510869565217391
sg14
F3.7934782608695654
sg15
F3.3911917098445596
sg16
F3.0
sg17
F3.478448275862069
sg18
F4.25
sg19
F3.15
sg20
F3.446236559139785
sg21
F3.0
ssI597
(dp617
g2
F4.0
sg3
F4.098958333333333
sg4
F3.85
sg5
F3.7341772151898733
sg6
F4.375
sg7
F4.181818181818182
sg8
F3.973333333333333
sg9
F3.893617021276596
sg10
F3.9411764705882355
sg11
F3.823529411764706
sg12
F4.0
sg13
I0
sg14
F4.25
sg15
F3.559055118110236
sg16
I0
sg17
F3.9904761904761905
sg18
F5.0
sg19
F4.666666666666667
sg20
F3.6517857142857144
sg21
F4.0
ssI598
(dp618
g2
F3.3333333333333335
sg3
F4.875
sg4
F5.0
sg5
F3.6875
sg6
F0.5
sg7
I0
sg8
F3.375
sg9
F3.6818181818181817
sg10
F3.375
sg11
F1.0
sg12
F1.0
sg13
F5.0
sg14
F1.0
sg15
F4.3
sg16
I0
sg17
F3.5
sg18
I0
sg19
I0
sg20
F3.25
sg21
I0
ssI599
(dp619
g2
F2.8282208588957056
sg3
F2.8232673267326733
sg4
F2.7607655502392343
sg5
F2.766816143497758
sg6
F2.3979591836734695
sg7
F3.3035714285714284
sg8
F2.8126491646778042
sg9
F2.6662125340599454
sg10
F2.652
sg11
F2.6159420289855073
sg12
F2.914110429447853
sg13
F2.9326923076923075
sg14
F2.397590361445783
sg15
F2.7361477572559365
sg16
F3.0
sg17
F2.422051282051282
sg18
F3.0673076923076925
sg19
F2.8988095238095237
sg20
F2.7035175879396984
sg21
F2.6530612244897958
ssI600
(dp620
g2
F2.8625
sg3
F2.9448051948051948
sg4
F2.938775510204082
sg5
F3.170967741935484
sg6
F2.9
sg7
F3.0
sg8
F2.896103896103896
sg9
F3.0
sg10
F3.511904761904762
sg11
F3.3278688524590163
sg12
F3.217741935483871
sg13
F2.6363636363636362
sg14
F2.965217391304348
sg15
F2.659090909090909
sg16
I0
sg17
F3.0652741514360313
sg18
F3.8333333333333335
sg19
F2.5454545454545454
sg20
F2.6956521739130435
sg21
F3.409090909090909
ssI601
(dp621
g2
F4.583333333333333
sg3
F4.428571428571429
sg4
F4.3
sg5
F4.4375
sg6
F4.5
sg7
I0
sg8
F4.5588235294117645
sg9
F4.375
sg10
F4.526315789473684
sg11
I0
sg12
F4.571428571428571
sg13
F4.5
sg14
F4.555555555555555
sg15
F4.364864864864865
sg16
F4.75
sg17
F4.35
sg18
F4.0
sg19
F4.5625
sg20
F4.4
sg21
F4.0
ssI602
(dp622
g2
F3.4545454545454546
sg3
F3.2941176470588234
sg4
F3.3333333333333335
sg5
F3.206896551724138
sg6
F3.6666666666666665
sg7
F3.5
sg8
F3.7142857142857144
sg9
F3.24
sg10
F3.7142857142857144
sg11
F4.0
sg12
F4.0
sg13
F4.0
sg14
F3.0
sg15
F3.5714285714285716
sg16
I0
sg17
F3.3
sg18
F3.0
sg19
F4.0
sg20
F3.6862745098039214
sg21
F2.5
ssI603
(dp623
g2
F3.5256410256410255
sg3
F3.6099815157116453
sg4
F3.2151898734177213
sg5
F3.0588235294117645
sg6
F3.4415584415584415
sg7
F4.260869565217392
sg8
F3.7430555555555554
sg9
F3.449074074074074
sg10
F3.5531914893617023
sg11
F3.53125
sg12
F2.25
sg13
I0
sg14
F3.125
sg15
F3.176470588235294
sg16
I0
sg17
F3.3046153846153845
sg18
F3.857142857142857
sg19
F3.5161290322580645
sg20
F3.556701030927835
sg21
F3.9473684210526314
ssI604
(dp624
g2
F3.75
sg3
F3.4871794871794872
sg4
F3.588235294117647
sg5
F3.6315789473684212
sg6
F3.6363636363636362
sg7
I0
sg8
F3.6315789473684212
sg9
F3.0714285714285716
sg10
F3.4166666666666665
sg11
F3.25
sg12
F3.4285714285714284
sg13
F3.5
sg14
F3.6153846153846154
sg15
F3.625
sg16
I0
sg17
F3.2413793103448274
sg18
I0
sg19
F3.0
sg20
F3.6666666666666665
sg21
F3.5
ssI605
(dp625
g2
F3.4375
sg3
F3.1186440677966103
sg4
F3.2884615384615383
sg5
F3.2641509433962264
sg6
F2.8666666666666667
sg7
I0
sg8
F3.0454545454545454
sg9
F3.330508474576271
sg10
F3.152173913043478
sg11
F3.076923076923077
sg12
F2.9423076923076925
sg13
F3.6785714285714284
sg14
F3.207547169811321
sg15
F3.2246376811594204
sg16
I0
sg17
F3.258426966292135
sg18
F3.0
sg19
F2.7777777777777777
sg20
F2.92
sg21
F3.3333333333333335
ssI606
(dp626
g2
F3.791208791208791
sg3
F3.7879656160458453
sg4
F3.5569620253164556
sg5
F3.503401360544218
sg6
F3.3461538461538463
sg7
F3.8125
sg8
F3.654135338345865
sg9
F3.740845070422535
sg10
F3.597938144329897
sg11
F3.727272727272727
sg12
F3.7142857142857144
sg13
F3.0625
sg14
F3.4489795918367347
sg15
F3.1788079470198674
sg16
I0
sg17
F3.5653206650831355
sg18
F3.8
sg19
F3.792307692307692
sg20
F3.5251256281407035
sg21
F3.411764705882353
ssI607
(dp627
g2
F4.647058823529412
sg3
F4.012195121951219
sg4
F3.25
sg5
F3.466666666666667
sg6
F4.114285714285714
sg7
I0
sg8
F3.814814814814815
sg9
F3.5172413793103448
sg10
F3.5714285714285716
sg11
F3.6
sg12
F3.3333333333333335
sg13
F5.0
sg14
F3.4210526315789473
sg15
F3.7222222222222223
sg16
I0
sg17
F3.327272727272727
sg18
I0
sg19
F4.166666666666667
sg20
F4.114754098360656
sg21
F4.0
ssI608
(dp628
g2
F3.550724637681159
sg3
F3.4375
sg4
F3.2964071856287425
sg5
F3.2209944751381214
sg6
F3.3195876288659796
sg7
F3.75
sg8
F3.613013698630137
sg9
F2.8867924528301887
sg10
F3.0
sg11
F2.757575757575758
sg12
F3.118181818181818
sg13
F4.0
sg14
F2.460227272727273
sg15
F3.3303249097472922
sg16
I0
sg17
F2.7366197183098593
sg18
F3.0
sg19
F3.5789473684210527
sg20
F3.5366795366795367
sg21
F2.6363636363636362
ssI609
(dp629
g2
I0
sg3
F3.3684210526315788
sg4
F3.0
sg5
F3.2
sg6
F3.5
sg7
I0
sg8
F3.5
sg9
F3.2
sg10
F3.0
sg11
I0
sg12
F3.0
sg13
F3.0
sg14
F3.0
sg15
F3.090909090909091
sg16
I0
sg17
F3.2857142857142856
sg18
F3.0
sg19
F3.5
sg20
F3.2857142857142856
sg21
F4.0
ssI610
(dp630
g2
F3.7666666666666666
sg3
F3.874739039665971
sg4
F3.6593625498007967
sg5
F3.7059925093632957
sg6
F3.5066006600660065
sg7
F4.35
sg8
F3.8003663003663
sg9
F3.73109243697479
sg10
F3.5927152317880795
sg11
F3.9285714285714284
sg12
F3.9015151515151514
sg13
F3.6280487804878048
sg14
F3.6517857142857144
sg15
F3.6005802707930368
sg16
I0
sg17
F3.7311435523114356
sg18
F4.2
sg19
F3.776595744680851
sg20
F3.573529411764706
sg21
F3.742424242424242
ss.